	.section	__TEXT,__text,regular,pure_instructions
	.build_version macos, 12, 0	sdk_version 12, 0
	.file	1 "/Users/songsizhou/Documents/GitHub/u8g2_font_builder/u8g2/tools/font/bdfconv" "bdf_map.c"
	.globl	_bf_map_cmd                     ; -- Begin function bf_map_cmd
	.p2align	2
_bf_map_cmd:                            ; @bf_map_cmd
Lfunc_begin0:
	.loc	1 219 0                         ; bdf_map.c:219:0
	.cfi_startproc
; %bb.0:
	sub	sp, sp, #112                    ; =112
	stp	x29, x30, [sp, #96]             ; 16-byte Folded Spill
	add	x29, sp, #96                    ; =96
	.cfi_def_cfa w29, 16
	.cfi_offset w30, -8
	.cfi_offset w29, -16
	stur	x0, [x29, #-8]
	stur	x1, [x29, #-16]
Ltmp0:
	.loc	1 224 10 prologue_end           ; bdf_map.c:224:10
	ldur	x8, [x29, #-16]
	.loc	1 224 9 is_stmt 0               ; bdf_map.c:224:9
	ldr	x8, [x8]
	.loc	1 224 8                         ; bdf_map.c:224:8
	ldrsb	w8, [x8]
	.loc	1 224 19                        ; bdf_map.c:224:19
	subs	w8, w8, #44                     ; =44
	b.eq	LBB0_2
; %bb.1:
	.loc	1 224 24                        ; bdf_map.c:224:24
	ldur	x8, [x29, #-16]
	.loc	1 224 23                        ; bdf_map.c:224:23
	ldr	x8, [x8]
	.loc	1 224 22                        ; bdf_map.c:224:22
	ldrsb	w8, [x8]
Ltmp1:
	.loc	1 224 8                         ; bdf_map.c:224:8
	cbnz	w8, LBB0_3
LBB0_2:
Ltmp2:
	.loc	1 225 5 is_stmt 1               ; bdf_map.c:225:5
	b	LBB0_21
Ltmp3:
LBB0_3:
	.loc	1 227 11                        ; bdf_map.c:227:11
	ldur	x0, [x29, #-16]
	.loc	1 227 3 is_stmt 0               ; bdf_map.c:227:3
	bl	_map_cmd
Ltmp4:
	.loc	1 0 0                           ; bdf_map.c:0:0
	adrp	x8, _range_from@PAGE
	.loc	1 230 8 is_stmt 1               ; bdf_map.c:230:8
	ldr	x8, [x8, _range_from@PAGEOFF]
	.loc	1 0 0 is_stmt 0                 ; bdf_map.c:0:0
	adrp	x9, _range_to@PAGE
	.loc	1 230 22                        ; bdf_map.c:230:22
	ldr	x9, [x9, _range_to@PAGEOFF]
Ltmp5:
	.loc	1 230 8                         ; bdf_map.c:230:8
	subs	x8, x8, x9
	b.eq	LBB0_5
; %bb.4:
Ltmp6:
	.loc	1 232 12 is_stmt 1              ; bdf_map.c:232:12
	ldur	x0, [x29, #-8]
Ltmp7:
	.loc	1 0 0 is_stmt 0                 ; bdf_map.c:0:0
	adrp	x8, _is_exclude@PAGE
Ltmp8:
	.loc	1 232 74                        ; bdf_map.c:232:74
	ldr	w8, [x8, _is_exclude@PAGEOFF]
                                        ; implicit-def: $x15
	mov	x15, x8
Ltmp9:
	.loc	1 0 0                           ; bdf_map.c:0:0
	adrp	x8, _range_from@PAGE
Ltmp10:
	.loc	1 232 86                        ; bdf_map.c:232:86
	ldr	x14, [x8, _range_from@PAGEOFF]
	.loc	1 232 98                        ; bdf_map.c:232:98
	ldr	x13, [x8, _range_from@PAGEOFF]
Ltmp11:
	.loc	1 0 0                           ; bdf_map.c:0:0
	adrp	x8, _range_to@PAGE
Ltmp12:
	.loc	1 232 110                       ; bdf_map.c:232:110
	ldr	x12, [x8, _range_to@PAGEOFF]
	.loc	1 232 120                       ; bdf_map.c:232:120
	ldr	x11, [x8, _range_to@PAGEOFF]
Ltmp13:
	.loc	1 0 0                           ; bdf_map.c:0:0
	adrp	x8, _map_to@PAGE
Ltmp14:
	.loc	1 232 130                       ; bdf_map.c:232:130
	ldr	x10, [x8, _map_to@PAGEOFF]
	.loc	1 232 138                       ; bdf_map.c:232:138
	ldr	x8, [x8, _map_to@PAGEOFF]
	.loc	1 0 0                           ; bdf_map.c:0:0
	adrp	x1, l_.str@PAGE
	add	x1, x1, l_.str@PAGEOFF
	.loc	1 232 5                         ; bdf_map.c:232:5
	mov	x9, sp
	str	x15, [x9]
	str	x14, [x9, #8]
	str	x13, [x9, #16]
	str	x12, [x9, #24]
	str	x11, [x9, #32]
	str	x10, [x9, #40]
	str	x8, [x9, #48]
	bl	_bf_Log
	.loc	1 233 3 is_stmt 1               ; bdf_map.c:233:3
	b	LBB0_8
Ltmp15:
LBB0_5:
	.loc	1 0 0 is_stmt 0                 ; bdf_map.c:0:0
	adrp	x8, _bf_map_cmd.is_log_disabled_for_single_glyphs@PAGE
	.loc	1 234 13 is_stmt 1              ; bdf_map.c:234:13
	ldr	w8, [x8, _bf_map_cmd.is_log_disabled_for_single_glyphs@PAGEOFF]
Ltmp16:
	.loc	1 234 13 is_stmt 0              ; bdf_map.c:234:13
	cbnz	w8, LBB0_7
; %bb.6:
Ltmp17:
	.loc	1 236 12 is_stmt 1              ; bdf_map.c:236:12
	ldur	x0, [x29, #-8]
	.loc	1 0 0 is_stmt 0                 ; bdf_map.c:0:0
	adrp	x8, _is_exclude@PAGE
	.loc	1 236 111                       ; bdf_map.c:236:111
	ldr	w8, [x8, _is_exclude@PAGEOFF]
                                        ; implicit-def: $x15
	mov	x15, x8
Ltmp18:
	.loc	1 0 0                           ; bdf_map.c:0:0
	adrp	x8, _range_from@PAGE
Ltmp19:
	.loc	1 236 123                       ; bdf_map.c:236:123
	ldr	x14, [x8, _range_from@PAGEOFF]
	.loc	1 236 135                       ; bdf_map.c:236:135
	ldr	x13, [x8, _range_from@PAGEOFF]
Ltmp20:
	.loc	1 0 0                           ; bdf_map.c:0:0
	adrp	x8, _range_to@PAGE
Ltmp21:
	.loc	1 236 147                       ; bdf_map.c:236:147
	ldr	x12, [x8, _range_to@PAGEOFF]
	.loc	1 236 157                       ; bdf_map.c:236:157
	ldr	x11, [x8, _range_to@PAGEOFF]
	.loc	1 0 0                           ; bdf_map.c:0:0
	adrp	x8, _map_to@PAGE
	.loc	1 236 167                       ; bdf_map.c:236:167
	ldr	x10, [x8, _map_to@PAGEOFF]
	.loc	1 236 175                       ; bdf_map.c:236:175
	ldr	x8, [x8, _map_to@PAGEOFF]
	.loc	1 0 0                           ; bdf_map.c:0:0
	adrp	x1, l_.str.1@PAGE
	add	x1, x1, l_.str.1@PAGEOFF
	.loc	1 236 5                         ; bdf_map.c:236:5
	mov	x9, sp
	str	x15, [x9]
	str	x14, [x9, #8]
	str	x13, [x9, #16]
	str	x12, [x9, #24]
	str	x11, [x9, #32]
	str	x10, [x9, #40]
	str	x8, [x9, #48]
	bl	_bf_Log
	mov	w8, #1
Ltmp22:
	.loc	1 0 0                           ; bdf_map.c:0:0
	adrp	x9, _bf_map_cmd.is_log_disabled_for_single_glyphs@PAGE
Ltmp23:
	.loc	1 237 39 is_stmt 1              ; bdf_map.c:237:39
	str	w8, [x9, _bf_map_cmd.is_log_disabled_for_single_glyphs@PAGEOFF]
Ltmp24:
LBB0_7:
LBB0_8:
	.loc	1 241 10                        ; bdf_map.c:241:10
	stur	wzr, [x29, #-20]
LBB0_9:                                 ; =>This Inner Loop Header: Depth=1
Ltmp25:
	.loc	1 241 15 is_stmt 0              ; bdf_map.c:241:15
	ldur	w8, [x29, #-20]
	.loc	1 241 19                        ; bdf_map.c:241:19
	ldur	x9, [x29, #-8]
	.loc	1 241 23                        ; bdf_map.c:241:23
	ldr	w9, [x9, #16]
Ltmp26:
	.loc	1 241 3                         ; bdf_map.c:241:3
	subs	w8, w8, w9
	b.ge	LBB0_21
; %bb.10:                               ;   in Loop: Header=BB0_9 Depth=1
Ltmp27:
	.loc	1 243 10 is_stmt 1              ; bdf_map.c:243:10
	ldur	x8, [x29, #-8]
	.loc	1 243 14 is_stmt 0              ; bdf_map.c:243:14
	ldr	x8, [x8, #8]
	.loc	1 243 25                        ; bdf_map.c:243:25
	ldursw	x9, [x29, #-20]
	.loc	1 243 10                        ; bdf_map.c:243:10
	ldr	x8, [x8, x9, lsl #3]
	.loc	1 243 8                         ; bdf_map.c:243:8
	stur	x8, [x29, #-32]
Ltmp28:
	.loc	1 244 10 is_stmt 1              ; bdf_map.c:244:10
	ldur	x8, [x29, #-32]
	.loc	1 244 14 is_stmt 0              ; bdf_map.c:244:14
	ldr	x8, [x8, #8]
Ltmp29:
	.loc	1 0 0                           ; bdf_map.c:0:0
	adrp	x9, _range_from@PAGE
Ltmp30:
	.loc	1 244 26                        ; bdf_map.c:244:26
	ldr	x9, [x9, _range_from@PAGEOFF]
	.loc	1 244 37                        ; bdf_map.c:244:37
	subs	x8, x8, x9
	b.lt	LBB0_19
; %bb.11:                               ;   in Loop: Header=BB0_9 Depth=1
	.loc	1 244 40                        ; bdf_map.c:244:40
	ldur	x8, [x29, #-32]
	.loc	1 244 44                        ; bdf_map.c:244:44
	ldr	x8, [x8, #8]
Ltmp31:
	.loc	1 0 0                           ; bdf_map.c:0:0
	adrp	x9, _range_to@PAGE
Ltmp32:
	.loc	1 244 56                        ; bdf_map.c:244:56
	ldr	x9, [x9, _range_to@PAGEOFF]
Ltmp33:
	.loc	1 244 10                        ; bdf_map.c:244:10
	subs	x8, x8, x9
	b.gt	LBB0_19
; %bb.12:                               ;   in Loop: Header=BB0_9 Depth=1
Ltmp34:
	.loc	1 0 0                           ; bdf_map.c:0:0
	adrp	x8, _is_kern_exclude@PAGE
	.loc	1 246 12 is_stmt 1              ; bdf_map.c:246:12
	ldr	w8, [x8, _is_kern_exclude@PAGEOFF]
Ltmp35:
	.loc	1 246 12 is_stmt 0              ; bdf_map.c:246:12
	cbz	w8, LBB0_14
; %bb.13:                               ;   in Loop: Header=BB0_9 Depth=1
Ltmp36:
	.loc	1 248 8 is_stmt 1               ; bdf_map.c:248:8
	ldur	x9, [x29, #-32]
	mov	w8, #1
	.loc	1 248 37 is_stmt 0              ; bdf_map.c:248:37
	str	w8, [x9, #80]
	.loc	1 249 7 is_stmt 1               ; bdf_map.c:249:7
	b	LBB0_18
Ltmp37:
LBB0_14:                                ;   in Loop: Header=BB0_9 Depth=1
	.loc	1 0 0 is_stmt 0                 ; bdf_map.c:0:0
	adrp	x8, _is_exclude@PAGE
Ltmp38:
	.loc	1 252 13 is_stmt 1              ; bdf_map.c:252:13
	ldr	w8, [x8, _is_exclude@PAGEOFF]
Ltmp39:
	.loc	1 252 13 is_stmt 0              ; bdf_map.c:252:13
	cbz	w8, LBB0_16
; %bb.15:                               ;   in Loop: Header=BB0_9 Depth=1
Ltmp40:
	.loc	1 254 3 is_stmt 1               ; bdf_map.c:254:3
	ldur	x9, [x29, #-32]
	mov	x8, #-1
	.loc	1 254 14 is_stmt 0              ; bdf_map.c:254:14
	str	x8, [x9, #16]
	.loc	1 255 8 is_stmt 1               ; bdf_map.c:255:8
	b	LBB0_17
Ltmp41:
LBB0_16:                                ;   in Loop: Header=BB0_9 Depth=1
	.loc	1 258 16                        ; bdf_map.c:258:16
	ldur	x8, [x29, #-32]
	.loc	1 258 20 is_stmt 0              ; bdf_map.c:258:20
	ldr	x8, [x8, #8]
Ltmp42:
	.loc	1 0 0                           ; bdf_map.c:0:0
	adrp	x9, _range_from@PAGE
Ltmp43:
	.loc	1 258 31                        ; bdf_map.c:258:31
	ldr	x9, [x9, _range_from@PAGEOFF]
	.loc	1 258 29                        ; bdf_map.c:258:29
	subs	x8, x8, x9
Ltmp44:
	.loc	1 0 0                           ; bdf_map.c:0:0
	adrp	x9, _map_to@PAGE
Ltmp45:
	.loc	1 258 44                        ; bdf_map.c:258:44
	ldr	x9, [x9, _map_to@PAGEOFF]
	.loc	1 258 42                        ; bdf_map.c:258:42
	add	x8, x8, x9
	.loc	1 258 3                         ; bdf_map.c:258:3
	ldur	x9, [x29, #-32]
	.loc	1 258 14                        ; bdf_map.c:258:14
	str	x8, [x9, #16]
Ltmp46:
LBB0_17:                                ;   in Loop: Header=BB0_9 Depth=1
LBB0_18:                                ;   in Loop: Header=BB0_9 Depth=1
LBB0_19:                                ;   in Loop: Header=BB0_9 Depth=1
; %bb.20:                               ;   in Loop: Header=BB0_9 Depth=1
	.loc	1 241 35 is_stmt 1              ; bdf_map.c:241:35
	ldur	w8, [x29, #-20]
	add	w8, w8, #1                      ; =1
	stur	w8, [x29, #-20]
	.loc	1 241 3 is_stmt 0               ; bdf_map.c:241:3
	b	LBB0_9
Ltmp47:
LBB0_21:
	.loc	1 264 1 is_stmt 1               ; bdf_map.c:264:1
	ldp	x29, x30, [sp, #96]             ; 16-byte Folded Reload
	add	sp, sp, #112                    ; =112
	ret
Ltmp48:
Lfunc_end0:
	.cfi_endproc
                                        ; -- End function
	.p2align	2                               ; -- Begin function map_cmd
_map_cmd:                               ; @map_cmd
Lfunc_begin1:
	.loc	1 173 0                         ; bdf_map.c:173:0
	.cfi_startproc
; %bb.0:
	sub	sp, sp, #32                     ; =32
	stp	x29, x30, [sp, #16]             ; 16-byte Folded Spill
	add	x29, sp, #16                    ; =16
	.cfi_def_cfa w29, 16
	.cfi_offset w30, -8
	.cfi_offset w29, -16
	str	x0, [sp, #8]
Ltmp49:
	.loc	1 174 10 prologue_end           ; bdf_map.c:174:10
	ldr	x8, [sp, #8]
	.loc	1 174 9 is_stmt 0               ; bdf_map.c:174:9
	ldr	x8, [x8]
	.loc	1 174 8                         ; bdf_map.c:174:8
	ldrsb	w8, [x8]
Ltmp50:
	.loc	1 174 8                         ; bdf_map.c:174:8
	subs	w8, w8, #42                     ; =42
	b.ne	LBB1_2
; %bb.1:
	.loc	1 0 8                           ; bdf_map.c:0:8
	mov	x8, #32
Ltmp51:
	adrp	x9, _range_from@PAGE
Ltmp52:
	.loc	1 176 16 is_stmt 1              ; bdf_map.c:176:16
	str	x8, [x9, _range_from@PAGEOFF]
	.loc	1 0 0 is_stmt 0                 ; bdf_map.c:0:0
	adrp	x10, _range_to@PAGE
	mov	x9, #255
	.loc	1 177 14 is_stmt 1              ; bdf_map.c:177:14
	str	x9, [x10, _range_to@PAGEOFF]
Ltmp53:
	.loc	1 0 0 is_stmt 0                 ; bdf_map.c:0:0
	adrp	x9, _map_to@PAGE
Ltmp54:
	.loc	1 178 12 is_stmt 1              ; bdf_map.c:178:12
	str	x8, [x9, _map_to@PAGEOFF]
Ltmp55:
	.loc	1 0 0 is_stmt 0                 ; bdf_map.c:0:0
	adrp	x8, _is_exclude@PAGE
Ltmp56:
	.loc	1 179 16 is_stmt 1              ; bdf_map.c:179:16
	str	wzr, [x8, _is_exclude@PAGEOFF]
Ltmp57:
	.loc	1 0 0 is_stmt 0                 ; bdf_map.c:0:0
	adrp	x8, _is_kern_exclude@PAGE
Ltmp58:
	.loc	1 180 21 is_stmt 1              ; bdf_map.c:180:21
	str	wzr, [x8, _is_kern_exclude@PAGEOFF]
	.loc	1 182 7                         ; bdf_map.c:182:7
	ldr	x9, [sp, #8]
	.loc	1 182 9 is_stmt 0               ; bdf_map.c:182:9
	ldr	x8, [x9]
	add	x8, x8, #1                      ; =1
	str	x8, [x9]
	.loc	1 183 16 is_stmt 1              ; bdf_map.c:183:16
	ldr	x0, [sp, #8]
	.loc	1 183 5 is_stmt 0               ; bdf_map.c:183:5
	bl	_skip_space
	.loc	1 184 3 is_stmt 1               ; bdf_map.c:184:3
	b	LBB1_11
Ltmp59:
LBB1_2:
	.loc	1 185 15                        ; bdf_map.c:185:15
	ldr	x8, [sp, #8]
	.loc	1 185 14 is_stmt 0              ; bdf_map.c:185:14
	ldr	x8, [x8]
	.loc	1 185 13                        ; bdf_map.c:185:13
	ldrsb	w8, [x8]
Ltmp60:
	.loc	1 185 13                        ; bdf_map.c:185:13
	subs	w8, w8, #126                    ; =126
	b.ne	LBB1_4
; %bb.3:
	.loc	1 0 13                          ; bdf_map.c:0:13
	mov	w8, #1
Ltmp61:
	adrp	x9, _is_exclude@PAGE
Ltmp62:
	.loc	1 187 16 is_stmt 1              ; bdf_map.c:187:16
	str	w8, [x9, _is_exclude@PAGEOFF]
Ltmp63:
	.loc	1 0 0 is_stmt 0                 ; bdf_map.c:0:0
	adrp	x8, _map_to@PAGE
Ltmp64:
	.loc	1 188 12 is_stmt 1              ; bdf_map.c:188:12
	str	xzr, [x8, _map_to@PAGEOFF]
	.loc	1 190 7                         ; bdf_map.c:190:7
	ldr	x9, [sp, #8]
	.loc	1 190 9 is_stmt 0               ; bdf_map.c:190:9
	ldr	x8, [x9]
	add	x8, x8, #1                      ; =1
	str	x8, [x9]
	.loc	1 191 16 is_stmt 1              ; bdf_map.c:191:16
	ldr	x0, [sp, #8]
	.loc	1 191 5 is_stmt 0               ; bdf_map.c:191:5
	bl	_skip_space
	.loc	1 192 15 is_stmt 1              ; bdf_map.c:192:15
	ldr	x0, [sp, #8]
	.loc	1 192 5 is_stmt 0               ; bdf_map.c:192:5
	bl	_get_range
	.loc	1 194 3 is_stmt 1               ; bdf_map.c:194:3
	b	LBB1_10
Ltmp65:
LBB1_4:
	.loc	1 195 15                        ; bdf_map.c:195:15
	ldr	x8, [sp, #8]
	.loc	1 195 14 is_stmt 0              ; bdf_map.c:195:14
	ldr	x8, [x8]
	.loc	1 195 13                        ; bdf_map.c:195:13
	ldrsb	w8, [x8]
Ltmp66:
	.loc	1 195 13                        ; bdf_map.c:195:13
	subs	w8, w8, #120                    ; =120
	b.ne	LBB1_6
; %bb.5:
Ltmp67:
	.loc	1 0 0                           ; bdf_map.c:0:0
	adrp	x9, _is_kern_exclude@PAGE
	mov	w8, #1
	.loc	1 197 21 is_stmt 1              ; bdf_map.c:197:21
	str	w8, [x9, _is_kern_exclude@PAGEOFF]
Ltmp68:
	.loc	1 0 0 is_stmt 0                 ; bdf_map.c:0:0
	adrp	x8, _map_to@PAGE
Ltmp69:
	.loc	1 198 12 is_stmt 1              ; bdf_map.c:198:12
	str	xzr, [x8, _map_to@PAGEOFF]
	.loc	1 200 7                         ; bdf_map.c:200:7
	ldr	x9, [sp, #8]
	.loc	1 200 9 is_stmt 0               ; bdf_map.c:200:9
	ldr	x8, [x9]
	add	x8, x8, #1                      ; =1
	str	x8, [x9]
	.loc	1 201 16 is_stmt 1              ; bdf_map.c:201:16
	ldr	x0, [sp, #8]
	.loc	1 201 5 is_stmt 0               ; bdf_map.c:201:5
	bl	_skip_space
	.loc	1 202 15 is_stmt 1              ; bdf_map.c:202:15
	ldr	x0, [sp, #8]
	.loc	1 202 5 is_stmt 0               ; bdf_map.c:202:5
	bl	_get_range
	.loc	1 203 3 is_stmt 1               ; bdf_map.c:203:3
	b	LBB1_9
Ltmp70:
LBB1_6:
	.loc	1 0 0 is_stmt 0                 ; bdf_map.c:0:0
	adrp	x8, _is_exclude@PAGE
	.loc	1 206 16 is_stmt 1              ; bdf_map.c:206:16
	str	wzr, [x8, _is_exclude@PAGEOFF]
	.loc	1 207 15                        ; bdf_map.c:207:15
	ldr	x0, [sp, #8]
	.loc	1 207 5 is_stmt 0               ; bdf_map.c:207:5
	bl	_get_range
	.loc	1 0 0                           ; bdf_map.c:0:0
	adrp	x8, _range_from@PAGE
	.loc	1 208 14 is_stmt 1              ; bdf_map.c:208:14
	ldr	x8, [x8, _range_from@PAGEOFF]
	.loc	1 0 0 is_stmt 0                 ; bdf_map.c:0:0
	adrp	x9, _map_to@PAGE
	.loc	1 208 12                        ; bdf_map.c:208:12
	str	x8, [x9, _map_to@PAGEOFF]
Ltmp71:
	.loc	1 209 12 is_stmt 1              ; bdf_map.c:209:12
	ldr	x8, [sp, #8]
	.loc	1 209 11 is_stmt 0              ; bdf_map.c:209:11
	ldr	x8, [x8]
	.loc	1 209 10                        ; bdf_map.c:209:10
	ldrsb	w8, [x8]
Ltmp72:
	.loc	1 209 10                        ; bdf_map.c:209:10
	subs	w8, w8, #62                     ; =62
	b.ne	LBB1_8
; %bb.7:
Ltmp73:
	.loc	1 211 9 is_stmt 1               ; bdf_map.c:211:9
	ldr	x9, [sp, #8]
	.loc	1 211 11 is_stmt 0              ; bdf_map.c:211:11
	ldr	x8, [x9]
	add	x8, x8, #1                      ; =1
	str	x8, [x9]
	.loc	1 212 18 is_stmt 1              ; bdf_map.c:212:18
	ldr	x0, [sp, #8]
	.loc	1 212 7 is_stmt 0               ; bdf_map.c:212:7
	bl	_skip_space
	.loc	1 213 27 is_stmt 1              ; bdf_map.c:213:27
	ldr	x0, [sp, #8]
	.loc	1 213 16 is_stmt 0              ; bdf_map.c:213:16
	bl	_get_addsub
Ltmp74:
	.loc	1 0 0                           ; bdf_map.c:0:0
	adrp	x8, _map_to@PAGE
Ltmp75:
	.loc	1 213 14                        ; bdf_map.c:213:14
	str	x0, [x8, _map_to@PAGEOFF]
Ltmp76:
LBB1_8:
LBB1_9:
LBB1_10:
LBB1_11:
	.loc	1 216 1 is_stmt 1               ; bdf_map.c:216:1
	ldp	x29, x30, [sp, #16]             ; 16-byte Folded Reload
	add	sp, sp, #32                     ; =32
	ret
Ltmp77:
Lfunc_end1:
	.cfi_endproc
                                        ; -- End function
	.globl	_bf_map_list                    ; -- Begin function bf_map_list
	.p2align	2
_bf_map_list:                           ; @bf_map_list
Lfunc_begin2:
	.loc	1 267 0                         ; bdf_map.c:267:0
	.cfi_startproc
; %bb.0:
	sub	sp, sp, #48                     ; =48
	stp	x29, x30, [sp, #32]             ; 16-byte Folded Spill
	add	x29, sp, #32                    ; =32
	.cfi_def_cfa w29, 16
	.cfi_offset w30, -8
	.cfi_offset w29, -16
	stur	x0, [x29, #-8]
	str	x1, [sp, #16]
Ltmp78:
	.loc	1 272 10 prologue_end           ; bdf_map.c:272:10
	str	wzr, [sp, #12]
LBB2_1:                                 ; =>This Inner Loop Header: Depth=1
Ltmp79:
	.loc	1 272 15 is_stmt 0              ; bdf_map.c:272:15
	ldr	w8, [sp, #12]
	.loc	1 272 19                        ; bdf_map.c:272:19
	ldur	x9, [x29, #-8]
	.loc	1 272 23                        ; bdf_map.c:272:23
	ldr	w9, [x9, #16]
Ltmp80:
	.loc	1 272 3                         ; bdf_map.c:272:3
	subs	w8, w8, w9
	b.ge	LBB2_4
; %bb.2:                                ;   in Loop: Header=BB2_1 Depth=1
Ltmp81:
	.loc	1 274 10 is_stmt 1              ; bdf_map.c:274:10
	ldur	x8, [x29, #-8]
	.loc	1 274 14 is_stmt 0              ; bdf_map.c:274:14
	ldr	x8, [x8, #8]
	.loc	1 274 25                        ; bdf_map.c:274:25
	ldrsw	x9, [sp, #12]
	.loc	1 274 10                        ; bdf_map.c:274:10
	ldr	x8, [x8, x9, lsl #3]
	.loc	1 274 8                         ; bdf_map.c:274:8
	str	x8, [sp]
	.loc	1 275 5 is_stmt 1               ; bdf_map.c:275:5
	ldr	x9, [sp]
	mov	x8, #-1
	.loc	1 275 16 is_stmt 0              ; bdf_map.c:275:16
	str	x8, [x9, #16]
Ltmp82:
; %bb.3:                                ;   in Loop: Header=BB2_1 Depth=1
	.loc	1 272 35 is_stmt 1              ; bdf_map.c:272:35
	ldr	w8, [sp, #12]
	add	w8, w8, #1                      ; =1
	str	w8, [sp, #12]
	.loc	1 272 3 is_stmt 0               ; bdf_map.c:272:3
	b	LBB2_1
Ltmp83:
LBB2_4:
	.loc	1 279 14 is_stmt 1              ; bdf_map.c:279:14
	ldr	x0, [sp, #16]
	.loc	1 279 3 is_stmt 0               ; bdf_map.c:279:3
	bl	_skip_space
LBB2_5:                                 ; =>This Inner Loop Header: Depth=1
Ltmp84:
	.loc	1 282 16 is_stmt 1              ; bdf_map.c:282:16
	ldur	x0, [x29, #-8]
	.loc	1 282 20 is_stmt 0              ; bdf_map.c:282:20
	ldr	x1, [sp, #16]
	.loc	1 282 5                         ; bdf_map.c:282:5
	bl	_bf_map_cmd
Ltmp85:
	.loc	1 283 12 is_stmt 1              ; bdf_map.c:283:12
	ldr	x8, [sp, #16]
	.loc	1 283 11 is_stmt 0              ; bdf_map.c:283:11
	ldr	x8, [x8]
	.loc	1 283 10                        ; bdf_map.c:283:10
	ldrsb	w8, [x8]
Ltmp86:
	.loc	1 283 10                        ; bdf_map.c:283:10
	subs	w8, w8, #44                     ; =44
	b.eq	LBB2_7
; %bb.6:
Ltmp87:
	.loc	1 284 7 is_stmt 1               ; bdf_map.c:284:7
	b	LBB2_8
Ltmp88:
LBB2_7:                                 ;   in Loop: Header=BB2_5 Depth=1
	.loc	1 285 7                         ; bdf_map.c:285:7
	ldr	x9, [sp, #16]
	.loc	1 285 9 is_stmt 0               ; bdf_map.c:285:9
	ldr	x8, [x9]
	add	x8, x8, #1                      ; =1
	str	x8, [x9]
	.loc	1 286 16 is_stmt 1              ; bdf_map.c:286:16
	ldr	x0, [sp, #16]
	.loc	1 286 5 is_stmt 0               ; bdf_map.c:286:5
	bl	_skip_space
Ltmp89:
	.loc	1 280 3 is_stmt 1               ; bdf_map.c:280:3
	b	LBB2_5
Ltmp90:
LBB2_8:
	.loc	1 288 1                         ; bdf_map.c:288:1
	ldp	x29, x30, [sp, #32]             ; 16-byte Folded Reload
	add	sp, sp, #48                     ; =48
	ret
Ltmp91:
Lfunc_end2:
	.cfi_endproc
                                        ; -- End function
	.p2align	2                               ; -- Begin function skip_space
_skip_space:                            ; @skip_space
Lfunc_begin3:
	.loc	1 41 0                          ; bdf_map.c:41:0
	.cfi_startproc
; %bb.0:
	sub	sp, sp, #16                     ; =16
	.cfi_def_cfa_offset 16
	str	x0, [sp, #8]
LBB3_1:                                 ; =>This Inner Loop Header: Depth=1
Ltmp93:
	.loc	1 44 12 prologue_end            ; bdf_map.c:44:12
	ldr	x8, [sp, #8]
	.loc	1 44 11 is_stmt 0               ; bdf_map.c:44:11
	ldr	x8, [x8]
	.loc	1 44 10                         ; bdf_map.c:44:10
	ldrsb	w8, [x8]
Ltmp94:
	.loc	1 44 10                         ; bdf_map.c:44:10
	cbnz	w8, LBB3_3
; %bb.2:
Ltmp95:
	.loc	1 45 7 is_stmt 1                ; bdf_map.c:45:7
	b	LBB3_6
Ltmp96:
LBB3_3:                                 ;   in Loop: Header=BB3_1 Depth=1
	.loc	1 46 12                         ; bdf_map.c:46:12
	ldr	x8, [sp, #8]
	.loc	1 46 11 is_stmt 0               ; bdf_map.c:46:11
	ldr	x8, [x8]
	.loc	1 46 10                         ; bdf_map.c:46:10
	ldrsb	w8, [x8]
Ltmp97:
	.loc	1 46 10                         ; bdf_map.c:46:10
	subs	w8, w8, #32                     ; =32
	b.le	LBB3_5
; %bb.4:
Ltmp98:
	.loc	1 47 7 is_stmt 1                ; bdf_map.c:47:7
	b	LBB3_6
Ltmp99:
LBB3_5:                                 ;   in Loop: Header=BB3_1 Depth=1
	.loc	1 48 7                          ; bdf_map.c:48:7
	ldr	x9, [sp, #8]
	.loc	1 48 9 is_stmt 0                ; bdf_map.c:48:9
	ldr	x8, [x9]
	add	x8, x8, #1                      ; =1
	str	x8, [x9]
Ltmp100:
	.loc	1 42 3 is_stmt 1                ; bdf_map.c:42:3
	b	LBB3_1
Ltmp101:
LBB3_6:
	.loc	1 50 1                          ; bdf_map.c:50:1
	add	sp, sp, #16                     ; =16
	ret
Ltmp102:
Lfunc_end3:
	.cfi_endproc
                                        ; -- End function
	.globl	_bf_Map                         ; -- Begin function bf_Map
	.p2align	2
_bf_Map:                                ; @bf_Map
Lfunc_begin4:
	.loc	1 291 0                         ; bdf_map.c:291:0
	.cfi_startproc
; %bb.0:
	sub	sp, sp, #48                     ; =48
	stp	x29, x30, [sp, #32]             ; 16-byte Folded Spill
	add	x29, sp, #32                    ; =32
	.cfi_def_cfa w29, 16
	.cfi_offset w30, -8
	.cfi_offset w29, -16
	stur	x0, [x29, #-8]
	str	x1, [sp, #16]
Ltmp103:
	.loc	1 292 15 prologue_end           ; bdf_map.c:292:15
	ldr	x0, [sp, #16]
	.loc	1 292 8 is_stmt 0               ; bdf_map.c:292:8
	bl	_strlen
Ltmp104:
	.loc	1 292 8                         ; bdf_map.c:292:8
	subs	x8, x0, #1024                   ; =1024
	b.hs	LBB4_2
; %bb.1:
Ltmp105:
	.loc	1 293 12 is_stmt 1              ; bdf_map.c:293:12
	ldur	x0, [x29, #-8]
	.loc	1 293 42 is_stmt 0              ; bdf_map.c:293:42
	ldr	x8, [sp, #16]
	.loc	1 0 0                           ; bdf_map.c:0:0
	adrp	x1, l_.str.2@PAGE
	add	x1, x1, l_.str.2@PAGEOFF
	.loc	1 293 5                         ; bdf_map.c:293:5
	mov	x9, sp
	str	x8, [x9]
	bl	_bf_Log
Ltmp106:
LBB4_2:
	.loc	1 294 15 is_stmt 1              ; bdf_map.c:294:15
	ldur	x0, [x29, #-8]
	add	x1, sp, #16                     ; =16
	.loc	1 294 3 is_stmt 0               ; bdf_map.c:294:3
	bl	_bf_map_list
	.loc	1 295 1 is_stmt 1               ; bdf_map.c:295:1
	ldp	x29, x30, [sp, #32]             ; 16-byte Folded Reload
	add	sp, sp, #48                     ; =48
	ret
Ltmp107:
Lfunc_end4:
	.cfi_endproc
                                        ; -- End function
	.globl	_bf_MapFile                     ; -- Begin function bf_MapFile
	.p2align	2
_bf_MapFile:                            ; @bf_MapFile
Lfunc_begin5:
	.loc	1 298 0                         ; bdf_map.c:298:0
	.cfi_startproc
; %bb.0:
	sub	sp, sp, #208                    ; =208
	stp	x29, x30, [sp, #192]            ; 16-byte Folded Spill
	add	x29, sp, #192                   ; =192
	.cfi_def_cfa w29, 16
	.cfi_offset w30, -8
	.cfi_offset w29, -16
	stur	x0, [x29, #-16]
	stur	x1, [x29, #-24]
Ltmp108:
	.loc	1 302 8 prologue_end            ; bdf_map.c:302:8
	ldur	x8, [x29, #-24]
Ltmp109:
	.loc	1 302 8 is_stmt 0               ; bdf_map.c:302:8
	cbnz	x8, LBB5_2
; %bb.1:
	.loc	1 0 8                           ; bdf_map.c:0:8
	mov	w8, #1
Ltmp110:
	.loc	1 303 5 is_stmt 1               ; bdf_map.c:303:5
	stur	w8, [x29, #-4]
	b	LBB5_11
Ltmp111:
LBB5_2:
	.loc	1 304 8                         ; bdf_map.c:304:8
	ldur	x8, [x29, #-24]
	ldrsb	w8, [x8]
Ltmp112:
	.loc	1 304 8 is_stmt 0               ; bdf_map.c:304:8
	cbnz	w8, LBB5_4
; %bb.3:
	.loc	1 0 8                           ; bdf_map.c:0:8
	mov	w8, #1
Ltmp113:
	.loc	1 305 5 is_stmt 1               ; bdf_map.c:305:5
	stur	w8, [x29, #-4]
	b	LBB5_11
Ltmp114:
LBB5_4:
	.loc	1 308 13                        ; bdf_map.c:308:13
	ldur	x0, [x29, #-24]
	add	x1, sp, #24                     ; =24
	.loc	1 308 8 is_stmt 0               ; bdf_map.c:308:8
	bl	_stat
Ltmp115:
	.loc	1 308 8                         ; bdf_map.c:308:8
	cbz	w0, LBB5_6
; %bb.5:
Ltmp116:
	.loc	1 309 5 is_stmt 1               ; bdf_map.c:309:5
	stur	wzr, [x29, #-4]
	b	LBB5_11
Ltmp117:
LBB5_6:
	.loc	1 310 14                        ; bdf_map.c:310:14
	ldur	x0, [x29, #-24]
	.loc	1 0 0 is_stmt 0                 ; bdf_map.c:0:0
	adrp	x1, l_.str.3@PAGE
	add	x1, x1, l_.str.3@PAGEOFF
	.loc	1 310 8                         ; bdf_map.c:310:8
	bl	_fopen
	.loc	1 310 6                         ; bdf_map.c:310:6
	str	x0, [sp, #8]
Ltmp118:
	.loc	1 311 8 is_stmt 1               ; bdf_map.c:311:8
	ldr	x8, [sp, #8]
Ltmp119:
	.loc	1 311 8 is_stmt 0               ; bdf_map.c:311:8
	cbnz	x8, LBB5_8
; %bb.7:
Ltmp120:
	.loc	1 312 5 is_stmt 1               ; bdf_map.c:312:5
	stur	wzr, [x29, #-4]
	b	LBB5_11
Ltmp121:
LBB5_8:
	.loc	1 313 18                        ; bdf_map.c:313:18
	ldr	x8, [sp, #120]
	.loc	1 313 25 is_stmt 0              ; bdf_map.c:313:25
	add	x0, x8, #1                      ; =1
	.loc	1 313 7                         ; bdf_map.c:313:7
	bl	_malloc
	.loc	1 313 5                         ; bdf_map.c:313:5
	str	x0, [sp, #16]
Ltmp122:
	.loc	1 314 8 is_stmt 1               ; bdf_map.c:314:8
	ldr	x8, [sp, #16]
Ltmp123:
	.loc	1 314 8 is_stmt 0               ; bdf_map.c:314:8
	cbnz	x8, LBB5_10
; %bb.9:
Ltmp124:
	.loc	1 315 5 is_stmt 1               ; bdf_map.c:315:5
	stur	wzr, [x29, #-4]
	b	LBB5_11
Ltmp125:
LBB5_10:
	.loc	1 316 9                         ; bdf_map.c:316:9
	ldr	x0, [sp, #16]
	.loc	1 316 16 is_stmt 0              ; bdf_map.c:316:16
	ldr	x1, [sp, #120]
	.loc	1 316 28                        ; bdf_map.c:316:28
	ldr	x3, [sp, #8]
	mov	x2, #1
	.loc	1 316 3                         ; bdf_map.c:316:3
	bl	_fread
	.loc	1 317 3 is_stmt 1               ; bdf_map.c:317:3
	ldr	x8, [sp, #16]
	.loc	1 317 9 is_stmt 0               ; bdf_map.c:317:9
	ldr	x9, [sp, #120]
	.loc	1 317 3                         ; bdf_map.c:317:3
	add	x8, x8, x9
	.loc	1 317 18                        ; bdf_map.c:317:18
	strb	wzr, [x8]
	.loc	1 318 10 is_stmt 1              ; bdf_map.c:318:10
	ldr	x0, [sp, #8]
	.loc	1 318 3 is_stmt 0               ; bdf_map.c:318:3
	bl	_fclose
	.loc	1 319 10 is_stmt 1              ; bdf_map.c:319:10
	ldur	x0, [x29, #-16]
	.loc	1 319 14 is_stmt 0              ; bdf_map.c:319:14
	ldr	x1, [sp, #16]
	.loc	1 319 3                         ; bdf_map.c:319:3
	bl	_bf_Map
	.loc	1 320 8 is_stmt 1               ; bdf_map.c:320:8
	ldr	x0, [sp, #16]
	.loc	1 320 3 is_stmt 0               ; bdf_map.c:320:3
	bl	_free
	mov	w8, #1
	.loc	1 321 3 is_stmt 1               ; bdf_map.c:321:3
	stur	w8, [x29, #-4]
LBB5_11:
	.loc	1 322 1                         ; bdf_map.c:322:1
	ldur	w0, [x29, #-4]
	ldp	x29, x30, [sp, #192]            ; 16-byte Folded Reload
	add	sp, sp, #208                    ; =208
	ret
Ltmp126:
Lfunc_end5:
	.cfi_endproc
                                        ; -- End function
	.p2align	2                               ; -- Begin function get_range
_get_range:                             ; @get_range
Lfunc_begin6:
	.loc	1 158 0                         ; bdf_map.c:158:0
	.cfi_startproc
; %bb.0:
	sub	sp, sp, #32                     ; =32
	stp	x29, x30, [sp, #16]             ; 16-byte Folded Spill
	add	x29, sp, #16                    ; =16
	.cfi_def_cfa w29, 16
	.cfi_offset w30, -8
	.cfi_offset w29, -16
	str	x0, [sp, #8]
Ltmp127:
	.loc	1 159 24 prologue_end           ; bdf_map.c:159:24
	ldr	x0, [sp, #8]
	.loc	1 159 16 is_stmt 0              ; bdf_map.c:159:16
	bl	_get_add
	.loc	1 0 0                           ; bdf_map.c:0:0
	adrp	x8, _range_from@PAGE
	.loc	1 159 14                        ; bdf_map.c:159:14
	str	x0, [x8, _range_from@PAGEOFF]
Ltmp128:
	.loc	1 160 10 is_stmt 1              ; bdf_map.c:160:10
	ldr	x8, [sp, #8]
	.loc	1 160 9 is_stmt 0               ; bdf_map.c:160:9
	ldr	x8, [x8]
	.loc	1 160 8                         ; bdf_map.c:160:8
	ldrsb	w8, [x8]
Ltmp129:
	.loc	1 160 8                         ; bdf_map.c:160:8
	subs	w8, w8, #45                     ; =45
	b.eq	LBB6_2
; %bb.1:
	.loc	1 0 0                           ; bdf_map.c:0:0
	adrp	x8, _range_from@PAGE
Ltmp130:
	.loc	1 162 16 is_stmt 1              ; bdf_map.c:162:16
	ldr	x8, [x8, _range_from@PAGEOFF]
Ltmp131:
	.loc	1 0 0 is_stmt 0                 ; bdf_map.c:0:0
	adrp	x9, _range_to@PAGE
Ltmp132:
	.loc	1 162 14                        ; bdf_map.c:162:14
	str	x8, [x9, _range_to@PAGEOFF]
	.loc	1 163 3 is_stmt 1               ; bdf_map.c:163:3
	b	LBB6_3
Ltmp133:
LBB6_2:
	.loc	1 166 7                         ; bdf_map.c:166:7
	ldr	x9, [sp, #8]
	.loc	1 166 9 is_stmt 0               ; bdf_map.c:166:9
	ldr	x8, [x9]
	add	x8, x8, #1                      ; =1
	str	x8, [x9]
	.loc	1 167 16 is_stmt 1              ; bdf_map.c:167:16
	ldr	x0, [sp, #8]
	.loc	1 167 5 is_stmt 0               ; bdf_map.c:167:5
	bl	_skip_space
	.loc	1 168 24 is_stmt 1              ; bdf_map.c:168:24
	ldr	x0, [sp, #8]
	.loc	1 168 16 is_stmt 0              ; bdf_map.c:168:16
	bl	_get_add
	.loc	1 0 0                           ; bdf_map.c:0:0
	adrp	x8, _range_to@PAGE
	.loc	1 168 14                        ; bdf_map.c:168:14
	str	x0, [x8, _range_to@PAGEOFF]
Ltmp134:
LBB6_3:
	.loc	1 170 1 is_stmt 1               ; bdf_map.c:170:1
	ldp	x29, x30, [sp, #16]             ; 16-byte Folded Reload
	add	sp, sp, #32                     ; =32
	ret
Ltmp135:
Lfunc_end6:
	.cfi_endproc
                                        ; -- End function
	.p2align	2                               ; -- Begin function get_addsub
_get_addsub:                            ; @get_addsub
Lfunc_begin7:
	.loc	1 140 0                         ; bdf_map.c:140:0
	.cfi_startproc
; %bb.0:
	sub	sp, sp, #48                     ; =48
	stp	x29, x30, [sp, #32]             ; 16-byte Folded Spill
	add	x29, sp, #32                    ; =32
	.cfi_def_cfa w29, 16
	.cfi_offset w30, -8
	.cfi_offset w29, -16
	stur	x0, [x29, #-8]
Ltmp136:
	.loc	1 143 15 prologue_end           ; bdf_map.c:143:15
	ldur	x0, [x29, #-8]
	.loc	1 143 7 is_stmt 0               ; bdf_map.c:143:7
	bl	_get_mul
	.loc	1 143 5                         ; bdf_map.c:143:5
	str	x0, [sp, #16]
LBB7_1:                                 ; =>This Inner Loop Header: Depth=1
	.loc	1 144 14 is_stmt 1              ; bdf_map.c:144:14
	ldur	x8, [x29, #-8]
	.loc	1 144 13 is_stmt 0              ; bdf_map.c:144:13
	ldr	x8, [x8]
	.loc	1 144 12                        ; bdf_map.c:144:12
	ldrsb	w9, [x8]
	mov	w8, #1
	.loc	1 144 24                        ; bdf_map.c:144:24
	subs	w9, w9, #43                     ; =43
	str	w8, [sp, #8]                    ; 4-byte Folded Spill
	b.eq	LBB7_3
; %bb.2:                                ;   in Loop: Header=BB7_1 Depth=1
	.loc	1 144 30                        ; bdf_map.c:144:30
	ldur	x8, [x29, #-8]
	.loc	1 144 29                        ; bdf_map.c:144:29
	ldr	x8, [x8]
	.loc	1 144 28                        ; bdf_map.c:144:28
	ldrsb	w8, [x8]
	.loc	1 144 33                        ; bdf_map.c:144:33
	subs	w8, w8, #45                     ; =45
	cset	w8, eq
	str	w8, [sp, #8]                    ; 4-byte Folded Spill
LBB7_3:                                 ;   in Loop: Header=BB7_1 Depth=1
	.loc	1 0 33                          ; bdf_map.c:0:33
	ldr	w8, [sp, #8]                    ; 4-byte Folded Reload
	.loc	1 144 3                         ; bdf_map.c:144:3
	tbz	w8, #0, LBB7_8
; %bb.4:                                ;   in Loop: Header=BB7_1 Depth=1
Ltmp137:
	.loc	1 146 12 is_stmt 1              ; bdf_map.c:146:12
	ldur	x8, [x29, #-8]
	.loc	1 146 11 is_stmt 0              ; bdf_map.c:146:11
	ldr	x8, [x8]
	.loc	1 146 10                        ; bdf_map.c:146:10
	ldrsb	w8, [x8]
	.loc	1 146 8                         ; bdf_map.c:146:8
	str	w8, [sp, #12]
	.loc	1 147 7 is_stmt 1               ; bdf_map.c:147:7
	ldur	x9, [x29, #-8]
	.loc	1 147 9 is_stmt 0               ; bdf_map.c:147:9
	ldr	x8, [x9]
	add	x8, x8, #1                      ; =1
	str	x8, [x9]
	.loc	1 148 16 is_stmt 1              ; bdf_map.c:148:16
	ldur	x0, [x29, #-8]
	.loc	1 148 5 is_stmt 0               ; bdf_map.c:148:5
	bl	_skip_space
Ltmp138:
	.loc	1 149 10 is_stmt 1              ; bdf_map.c:149:10
	ldr	w8, [sp, #12]
Ltmp139:
	.loc	1 149 10 is_stmt 0              ; bdf_map.c:149:10
	subs	w8, w8, #43                     ; =43
	b.ne	LBB7_6
; %bb.5:                                ;   in Loop: Header=BB7_1 Depth=1
Ltmp140:
	.loc	1 150 20 is_stmt 1              ; bdf_map.c:150:20
	ldur	x0, [x29, #-8]
	.loc	1 150 12 is_stmt 0              ; bdf_map.c:150:12
	bl	_get_mul
	.loc	1 150 9                         ; bdf_map.c:150:9
	ldr	x8, [sp, #16]
	add	x8, x8, x0
	str	x8, [sp, #16]
	.loc	1 150 7                         ; bdf_map.c:150:7
	b	LBB7_7
LBB7_6:                                 ;   in Loop: Header=BB7_1 Depth=1
	.loc	1 152 20 is_stmt 1              ; bdf_map.c:152:20
	ldur	x0, [x29, #-8]
	.loc	1 152 12 is_stmt 0              ; bdf_map.c:152:12
	bl	_get_mul
	.loc	1 152 9                         ; bdf_map.c:152:9
	ldr	x8, [sp, #16]
	subs	x8, x8, x0
	str	x8, [sp, #16]
Ltmp141:
LBB7_7:                                 ;   in Loop: Header=BB7_1 Depth=1
	.loc	1 144 3 is_stmt 1               ; bdf_map.c:144:3
	b	LBB7_1
LBB7_8:
	.loc	1 154 10                        ; bdf_map.c:154:10
	ldr	x0, [sp, #16]
	.loc	1 154 3 is_stmt 0               ; bdf_map.c:154:3
	ldp	x29, x30, [sp, #32]             ; 16-byte Folded Reload
	add	sp, sp, #48                     ; =48
	ret
Ltmp142:
Lfunc_end7:
	.cfi_endproc
                                        ; -- End function
	.p2align	2                               ; -- Begin function get_add
_get_add:                               ; @get_add
Lfunc_begin8:
	.loc	1 127 0 is_stmt 1               ; bdf_map.c:127:0
	.cfi_startproc
; %bb.0:
	sub	sp, sp, #32                     ; =32
	stp	x29, x30, [sp, #16]             ; 16-byte Folded Spill
	add	x29, sp, #16                    ; =16
	.cfi_def_cfa w29, 16
	.cfi_offset w30, -8
	.cfi_offset w29, -16
	str	x0, [sp, #8]
Ltmp143:
	.loc	1 129 15 prologue_end           ; bdf_map.c:129:15
	ldr	x0, [sp, #8]
	.loc	1 129 7 is_stmt 0               ; bdf_map.c:129:7
	bl	_get_mul
	.loc	1 129 5                         ; bdf_map.c:129:5
	str	x0, [sp]
LBB8_1:                                 ; =>This Inner Loop Header: Depth=1
	.loc	1 130 14 is_stmt 1              ; bdf_map.c:130:14
	ldr	x8, [sp, #8]
	.loc	1 130 13 is_stmt 0              ; bdf_map.c:130:13
	ldr	x8, [x8]
	.loc	1 130 12                        ; bdf_map.c:130:12
	ldrsb	w8, [x8]
	.loc	1 130 3                         ; bdf_map.c:130:3
	subs	w8, w8, #43                     ; =43
	b.ne	LBB8_3
; %bb.2:                                ;   in Loop: Header=BB8_1 Depth=1
Ltmp144:
	.loc	1 132 7 is_stmt 1               ; bdf_map.c:132:7
	ldr	x9, [sp, #8]
	.loc	1 132 9 is_stmt 0               ; bdf_map.c:132:9
	ldr	x8, [x9]
	add	x8, x8, #1                      ; =1
	str	x8, [x9]
	.loc	1 133 16 is_stmt 1              ; bdf_map.c:133:16
	ldr	x0, [sp, #8]
	.loc	1 133 5 is_stmt 0               ; bdf_map.c:133:5
	bl	_skip_space
	.loc	1 134 18 is_stmt 1              ; bdf_map.c:134:18
	ldr	x0, [sp, #8]
	.loc	1 134 10 is_stmt 0              ; bdf_map.c:134:10
	bl	_get_mul
	.loc	1 134 7                         ; bdf_map.c:134:7
	ldr	x8, [sp]
	add	x8, x8, x0
	str	x8, [sp]
Ltmp145:
	.loc	1 130 3 is_stmt 1               ; bdf_map.c:130:3
	b	LBB8_1
LBB8_3:
	.loc	1 136 10                        ; bdf_map.c:136:10
	ldr	x0, [sp]
	.loc	1 136 3 is_stmt 0               ; bdf_map.c:136:3
	ldp	x29, x30, [sp, #16]             ; 16-byte Folded Reload
	add	sp, sp, #32                     ; =32
	ret
Ltmp146:
Lfunc_end8:
	.cfi_endproc
                                        ; -- End function
	.p2align	2                               ; -- Begin function get_mul
_get_mul:                               ; @get_mul
Lfunc_begin9:
	.loc	1 114 0 is_stmt 1               ; bdf_map.c:114:0
	.cfi_startproc
; %bb.0:
	sub	sp, sp, #32                     ; =32
	stp	x29, x30, [sp, #16]             ; 16-byte Folded Spill
	add	x29, sp, #16                    ; =16
	.cfi_def_cfa w29, 16
	.cfi_offset w30, -8
	.cfi_offset w29, -16
	str	x0, [sp, #8]
Ltmp147:
	.loc	1 116 15 prologue_end           ; bdf_map.c:116:15
	ldr	x0, [sp, #8]
	.loc	1 116 7 is_stmt 0               ; bdf_map.c:116:7
	bl	_get_num
	.loc	1 116 5                         ; bdf_map.c:116:5
	str	x0, [sp]
LBB9_1:                                 ; =>This Inner Loop Header: Depth=1
	.loc	1 117 14 is_stmt 1              ; bdf_map.c:117:14
	ldr	x8, [sp, #8]
	.loc	1 117 13 is_stmt 0              ; bdf_map.c:117:13
	ldr	x8, [x8]
	.loc	1 117 12                        ; bdf_map.c:117:12
	ldrsb	w8, [x8]
	.loc	1 117 3                         ; bdf_map.c:117:3
	subs	w8, w8, #42                     ; =42
	b.ne	LBB9_3
; %bb.2:                                ;   in Loop: Header=BB9_1 Depth=1
Ltmp148:
	.loc	1 119 7 is_stmt 1               ; bdf_map.c:119:7
	ldr	x9, [sp, #8]
	.loc	1 119 9 is_stmt 0               ; bdf_map.c:119:9
	ldr	x8, [x9]
	add	x8, x8, #1                      ; =1
	str	x8, [x9]
	.loc	1 120 16 is_stmt 1              ; bdf_map.c:120:16
	ldr	x0, [sp, #8]
	.loc	1 120 5 is_stmt 0               ; bdf_map.c:120:5
	bl	_skip_space
	.loc	1 121 18 is_stmt 1              ; bdf_map.c:121:18
	ldr	x0, [sp, #8]
	.loc	1 121 10 is_stmt 0              ; bdf_map.c:121:10
	bl	_get_num
	.loc	1 121 7                         ; bdf_map.c:121:7
	ldr	x8, [sp]
	mul	x8, x8, x0
	str	x8, [sp]
Ltmp149:
	.loc	1 117 3 is_stmt 1               ; bdf_map.c:117:3
	b	LBB9_1
LBB9_3:
	.loc	1 123 10                        ; bdf_map.c:123:10
	ldr	x0, [sp]
	.loc	1 123 3 is_stmt 0               ; bdf_map.c:123:3
	ldp	x29, x30, [sp, #16]             ; 16-byte Folded Reload
	add	sp, sp, #32                     ; =32
	ret
Ltmp150:
Lfunc_end9:
	.cfi_endproc
                                        ; -- End function
	.p2align	2                               ; -- Begin function get_num
_get_num:                               ; @get_num
Lfunc_begin10:
	.loc	1 105 0 is_stmt 1               ; bdf_map.c:105:0
	.cfi_startproc
; %bb.0:
	sub	sp, sp, #32                     ; =32
	stp	x29, x30, [sp, #16]             ; 16-byte Folded Spill
	add	x29, sp, #16                    ; =16
	.cfi_def_cfa w29, 16
	.cfi_offset w30, -8
	.cfi_offset w29, -16
	str	x0, [sp]
Ltmp151:
	.loc	1 106 11 prologue_end           ; bdf_map.c:106:11
	ldr	x8, [sp]
	.loc	1 106 10 is_stmt 0              ; bdf_map.c:106:10
	ldr	x8, [x8]
	.loc	1 106 9                         ; bdf_map.c:106:9
	ldrsb	w8, [x8]
Ltmp152:
	.loc	1 106 8                         ; bdf_map.c:106:8
	subs	w8, w8, #36                     ; =36
	b.eq	LBB10_2
; %bb.1:
Ltmp153:
	.loc	1 107 20 is_stmt 1              ; bdf_map.c:107:20
	ldr	x0, [sp]
	.loc	1 107 12 is_stmt 0              ; bdf_map.c:107:12
	bl	_get_dec
	.loc	1 107 5                         ; bdf_map.c:107:5
	str	x0, [sp, #8]
	b	LBB10_3
Ltmp154:
LBB10_2:
	.loc	1 108 5 is_stmt 1               ; bdf_map.c:108:5
	ldr	x9, [sp]
	.loc	1 108 7 is_stmt 0               ; bdf_map.c:108:7
	ldr	x8, [x9]
	add	x8, x8, #1                      ; =1
	str	x8, [x9]
	.loc	1 109 14 is_stmt 1              ; bdf_map.c:109:14
	ldr	x0, [sp]
	.loc	1 109 3 is_stmt 0               ; bdf_map.c:109:3
	bl	_skip_space
	.loc	1 110 18 is_stmt 1              ; bdf_map.c:110:18
	ldr	x0, [sp]
	.loc	1 110 10 is_stmt 0              ; bdf_map.c:110:10
	bl	_get_hex
	.loc	1 110 3                         ; bdf_map.c:110:3
	str	x0, [sp, #8]
LBB10_3:
	.loc	1 111 1 is_stmt 1               ; bdf_map.c:111:1
	ldr	x0, [sp, #8]
	ldp	x29, x30, [sp, #16]             ; 16-byte Folded Reload
	add	sp, sp, #32                     ; =32
	ret
Ltmp155:
Lfunc_end10:
	.cfi_endproc
                                        ; -- End function
	.p2align	2                               ; -- Begin function get_dec
_get_dec:                               ; @get_dec
Lfunc_begin11:
	.loc	1 53 0                          ; bdf_map.c:53:0
	.cfi_startproc
; %bb.0:
	sub	sp, sp, #32                     ; =32
	stp	x29, x30, [sp, #16]             ; 16-byte Folded Spill
	add	x29, sp, #16                    ; =16
	.cfi_def_cfa w29, 16
	.cfi_offset w30, -8
	.cfi_offset w29, -16
	str	x0, [sp, #8]
Ltmp156:
	.loc	1 54 8 prologue_end             ; bdf_map.c:54:8
	str	xzr, [sp]
LBB11_1:                                ; =>This Inner Loop Header: Depth=1
Ltmp157:
	.loc	1 57 13                         ; bdf_map.c:57:13
	ldr	x8, [sp, #8]
	.loc	1 57 12 is_stmt 0               ; bdf_map.c:57:12
	ldr	x8, [x8]
	.loc	1 57 11                         ; bdf_map.c:57:11
	ldrsb	w8, [x8]
	.loc	1 57 23                         ; bdf_map.c:57:23
	subs	w8, w8, #48                     ; =48
	b.lt	LBB11_4
; %bb.2:                                ;   in Loop: Header=BB11_1 Depth=1
	.loc	1 57 29                         ; bdf_map.c:57:29
	ldr	x8, [sp, #8]
	.loc	1 57 28                         ; bdf_map.c:57:28
	ldr	x8, [x8]
	.loc	1 57 27                         ; bdf_map.c:57:27
	ldrsb	w8, [x8]
Ltmp158:
	.loc	1 57 10                         ; bdf_map.c:57:10
	subs	w8, w8, #57                     ; =57
	b.gt	LBB11_4
; %bb.3:                                ;   in Loop: Header=BB11_1 Depth=1
Ltmp159:
	.loc	1 59 8 is_stmt 1                ; bdf_map.c:59:8
	ldr	x8, [sp]
	mov	x9, #10
	mul	x8, x8, x9
	str	x8, [sp]
	.loc	1 60 14                         ; bdf_map.c:60:14
	ldr	x8, [sp, #8]
	.loc	1 60 13 is_stmt 0               ; bdf_map.c:60:13
	ldr	x8, [x8]
	.loc	1 60 12                         ; bdf_map.c:60:12
	ldrsb	w8, [x8]
	.loc	1 60 16                         ; bdf_map.c:60:16
	subs	w9, w8, #48                     ; =48
	.loc	1 60 8                          ; bdf_map.c:60:8
	ldr	x8, [sp]
	add	x8, x8, w9, sxtw
	str	x8, [sp]
	.loc	1 61 9 is_stmt 1                ; bdf_map.c:61:9
	ldr	x9, [sp, #8]
	.loc	1 61 11 is_stmt 0               ; bdf_map.c:61:11
	ldr	x8, [x9]
	add	x8, x8, #1                      ; =1
	str	x8, [x9]
	.loc	1 62 5 is_stmt 1                ; bdf_map.c:62:5
	b	LBB11_5
Ltmp160:
LBB11_4:
	.loc	1 65 7                          ; bdf_map.c:65:7
	b	LBB11_6
Ltmp161:
LBB11_5:                                ;   in Loop: Header=BB11_1 Depth=1
	.loc	1 55 3                          ; bdf_map.c:55:3
	b	LBB11_1
Ltmp162:
LBB11_6:
	.loc	1 68 14                         ; bdf_map.c:68:14
	ldr	x0, [sp, #8]
	.loc	1 68 3 is_stmt 0                ; bdf_map.c:68:3
	bl	_skip_space
	.loc	1 69 10 is_stmt 1               ; bdf_map.c:69:10
	ldr	x0, [sp]
	.loc	1 69 3 is_stmt 0                ; bdf_map.c:69:3
	ldp	x29, x30, [sp, #16]             ; 16-byte Folded Reload
	add	sp, sp, #32                     ; =32
	ret
Ltmp163:
Lfunc_end11:
	.cfi_endproc
                                        ; -- End function
	.p2align	2                               ; -- Begin function get_hex
_get_hex:                               ; @get_hex
Lfunc_begin12:
	.loc	1 73 0 is_stmt 1                ; bdf_map.c:73:0
	.cfi_startproc
; %bb.0:
	sub	sp, sp, #32                     ; =32
	stp	x29, x30, [sp, #16]             ; 16-byte Folded Spill
	add	x29, sp, #16                    ; =16
	.cfi_def_cfa w29, 16
	.cfi_offset w30, -8
	.cfi_offset w29, -16
	str	x0, [sp, #8]
Ltmp164:
	.loc	1 74 8 prologue_end             ; bdf_map.c:74:8
	str	xzr, [sp]
LBB12_1:                                ; =>This Inner Loop Header: Depth=1
Ltmp165:
	.loc	1 77 13                         ; bdf_map.c:77:13
	ldr	x8, [sp, #8]
	.loc	1 77 12 is_stmt 0               ; bdf_map.c:77:12
	ldr	x8, [x8]
	.loc	1 77 11                         ; bdf_map.c:77:11
	ldrsb	w8, [x8]
	.loc	1 77 23                         ; bdf_map.c:77:23
	subs	w8, w8, #48                     ; =48
	b.lt	LBB12_4
; %bb.2:                                ;   in Loop: Header=BB12_1 Depth=1
	.loc	1 77 29                         ; bdf_map.c:77:29
	ldr	x8, [sp, #8]
	.loc	1 77 28                         ; bdf_map.c:77:28
	ldr	x8, [x8]
	.loc	1 77 27                         ; bdf_map.c:77:27
	ldrsb	w8, [x8]
Ltmp166:
	.loc	1 77 10                         ; bdf_map.c:77:10
	subs	w8, w8, #57                     ; =57
	b.gt	LBB12_4
; %bb.3:                                ;   in Loop: Header=BB12_1 Depth=1
Ltmp167:
	.loc	1 79 8 is_stmt 1                ; bdf_map.c:79:8
	ldr	x8, [sp]
	lsl	x8, x8, #4
	str	x8, [sp]
	.loc	1 80 14                         ; bdf_map.c:80:14
	ldr	x8, [sp, #8]
	.loc	1 80 13 is_stmt 0               ; bdf_map.c:80:13
	ldr	x8, [x8]
	.loc	1 80 12                         ; bdf_map.c:80:12
	ldrsb	w8, [x8]
	.loc	1 80 16                         ; bdf_map.c:80:16
	subs	w9, w8, #48                     ; =48
	.loc	1 80 8                          ; bdf_map.c:80:8
	ldr	x8, [sp]
	add	x8, x8, w9, sxtw
	str	x8, [sp]
	.loc	1 81 9 is_stmt 1                ; bdf_map.c:81:9
	ldr	x9, [sp, #8]
	.loc	1 81 11 is_stmt 0               ; bdf_map.c:81:11
	ldr	x8, [x9]
	add	x8, x8, #1                      ; =1
	str	x8, [x9]
	.loc	1 82 5 is_stmt 1                ; bdf_map.c:82:5
	b	LBB12_13
Ltmp168:
LBB12_4:                                ;   in Loop: Header=BB12_1 Depth=1
	.loc	1 83 18                         ; bdf_map.c:83:18
	ldr	x8, [sp, #8]
	.loc	1 83 17 is_stmt 0               ; bdf_map.c:83:17
	ldr	x8, [x8]
	.loc	1 83 16                         ; bdf_map.c:83:16
	ldrsb	w8, [x8]
	.loc	1 83 28                         ; bdf_map.c:83:28
	subs	w8, w8, #97                     ; =97
	b.lt	LBB12_7
; %bb.5:                                ;   in Loop: Header=BB12_1 Depth=1
	.loc	1 83 34                         ; bdf_map.c:83:34
	ldr	x8, [sp, #8]
	.loc	1 83 33                         ; bdf_map.c:83:33
	ldr	x8, [x8]
	.loc	1 83 32                         ; bdf_map.c:83:32
	ldrsb	w8, [x8]
Ltmp169:
	.loc	1 83 15                         ; bdf_map.c:83:15
	subs	w8, w8, #102                    ; =102
	b.gt	LBB12_7
; %bb.6:                                ;   in Loop: Header=BB12_1 Depth=1
Ltmp170:
	.loc	1 85 8 is_stmt 1                ; bdf_map.c:85:8
	ldr	x8, [sp]
	lsl	x8, x8, #4
	str	x8, [sp]
	.loc	1 86 14                         ; bdf_map.c:86:14
	ldr	x8, [sp, #8]
	.loc	1 86 13 is_stmt 0               ; bdf_map.c:86:13
	ldr	x8, [x8]
	.loc	1 86 12                         ; bdf_map.c:86:12
	ldrsb	w8, [x8]
	.loc	1 86 16                         ; bdf_map.c:86:16
	subs	w8, w8, #97                     ; =97
	.loc	1 86 20                         ; bdf_map.c:86:20
	add	w9, w8, #10                     ; =10
	.loc	1 86 8                          ; bdf_map.c:86:8
	ldr	x8, [sp]
	add	x8, x8, w9, sxtw
	str	x8, [sp]
	.loc	1 87 9 is_stmt 1                ; bdf_map.c:87:9
	ldr	x9, [sp, #8]
	.loc	1 87 11 is_stmt 0               ; bdf_map.c:87:11
	ldr	x8, [x9]
	add	x8, x8, #1                      ; =1
	str	x8, [x9]
	.loc	1 88 5 is_stmt 1                ; bdf_map.c:88:5
	b	LBB12_12
Ltmp171:
LBB12_7:                                ;   in Loop: Header=BB12_1 Depth=1
	.loc	1 89 18                         ; bdf_map.c:89:18
	ldr	x8, [sp, #8]
	.loc	1 89 17 is_stmt 0               ; bdf_map.c:89:17
	ldr	x8, [x8]
	.loc	1 89 16                         ; bdf_map.c:89:16
	ldrsb	w8, [x8]
	.loc	1 89 28                         ; bdf_map.c:89:28
	subs	w8, w8, #65                     ; =65
	b.lt	LBB12_10
; %bb.8:                                ;   in Loop: Header=BB12_1 Depth=1
	.loc	1 89 34                         ; bdf_map.c:89:34
	ldr	x8, [sp, #8]
	.loc	1 89 33                         ; bdf_map.c:89:33
	ldr	x8, [x8]
	.loc	1 89 32                         ; bdf_map.c:89:32
	ldrsb	w8, [x8]
Ltmp172:
	.loc	1 89 15                         ; bdf_map.c:89:15
	subs	w8, w8, #70                     ; =70
	b.gt	LBB12_10
; %bb.9:                                ;   in Loop: Header=BB12_1 Depth=1
Ltmp173:
	.loc	1 91 8 is_stmt 1                ; bdf_map.c:91:8
	ldr	x8, [sp]
	lsl	x8, x8, #4
	str	x8, [sp]
	.loc	1 92 14                         ; bdf_map.c:92:14
	ldr	x8, [sp, #8]
	.loc	1 92 13 is_stmt 0               ; bdf_map.c:92:13
	ldr	x8, [x8]
	.loc	1 92 12                         ; bdf_map.c:92:12
	ldrsb	w8, [x8]
	.loc	1 92 16                         ; bdf_map.c:92:16
	subs	w8, w8, #65                     ; =65
	.loc	1 92 20                         ; bdf_map.c:92:20
	add	w9, w8, #10                     ; =10
	.loc	1 92 8                          ; bdf_map.c:92:8
	ldr	x8, [sp]
	add	x8, x8, w9, sxtw
	str	x8, [sp]
	.loc	1 93 9 is_stmt 1                ; bdf_map.c:93:9
	ldr	x9, [sp, #8]
	.loc	1 93 11 is_stmt 0               ; bdf_map.c:93:11
	ldr	x8, [x9]
	add	x8, x8, #1                      ; =1
	str	x8, [x9]
	.loc	1 94 5 is_stmt 1                ; bdf_map.c:94:5
	b	LBB12_11
Ltmp174:
LBB12_10:
	.loc	1 97 7                          ; bdf_map.c:97:7
	b	LBB12_14
Ltmp175:
LBB12_11:                               ;   in Loop: Header=BB12_1 Depth=1
LBB12_12:                               ;   in Loop: Header=BB12_1 Depth=1
LBB12_13:                               ;   in Loop: Header=BB12_1 Depth=1
	.loc	1 75 3                          ; bdf_map.c:75:3
	b	LBB12_1
Ltmp176:
LBB12_14:
	.loc	1 100 14                        ; bdf_map.c:100:14
	ldr	x0, [sp, #8]
	.loc	1 100 3 is_stmt 0               ; bdf_map.c:100:3
	bl	_skip_space
	.loc	1 101 10 is_stmt 1              ; bdf_map.c:101:10
	ldr	x0, [sp]
	.loc	1 101 3 is_stmt 0               ; bdf_map.c:101:3
	ldp	x29, x30, [sp, #16]             ; 16-byte Folded Reload
	add	sp, sp, #32                     ; =32
	ret
Ltmp177:
Lfunc_end12:
	.cfi_endproc
                                        ; -- End function
.zerofill __DATA,__bss,_bf_map_cmd.is_log_disabled_for_single_glyphs,4,2 ; @bf_map_cmd.is_log_disabled_for_single_glyphs
.zerofill __DATA,__bss,_range_from,8,3  ; @range_from
.zerofill __DATA,__bss,_range_to,8,3    ; @range_to
	.section	__TEXT,__cstring,cstring_literals
l_.str:                                 ; @.str
	.asciz	"Map: exclude=%d from=%ld/$%lx to=%ld/$%lx map=%ld/$%lx"

.zerofill __DATA,__bss,_is_exclude,4,2  ; @is_exclude
.zerofill __DATA,__bss,_map_to,8,3      ; @map_to
l_.str.1:                               ; @.str.1
	.asciz	"Map: exclude=%d from=%ld/$%lx to=%ld/$%lx map=%ld/$%lx (further single glyph logs disabled)"

.zerofill __DATA,__bss,_is_kern_exclude,4,2 ; @is_kern_exclude
l_.str.2:                               ; @.str.2
	.asciz	"Map: map_cmd_list='%s'"

l_.str.3:                               ; @.str.3
	.asciz	"r"

	.file	2 "/Users/songsizhou/Documents/GitHub/u8g2_font_builder/u8g2/tools/font/bdfconv" "./bdf_font.h"
	.file	3 "/Users/songsizhou/Documents/GitHub/u8g2_font_builder/u8g2/tools/font/bdfconv" "./bdf_glyph.h"
	.file	4 "/Library/Developer/CommandLineTools/SDKs/MacOSX.sdk/usr/include/_types" "_uint8_t.h"
	.file	5 "/Library/Developer/CommandLineTools/SDKs/MacOSX.sdk/usr/include" "_stdio.h"
	.file	6 "/Library/Developer/CommandLineTools/SDKs/MacOSX.sdk/usr/include/arm" "_types.h"
	.file	7 "/Library/Developer/CommandLineTools/SDKs/MacOSX.sdk/usr/include/sys" "_types.h"
	.file	8 "/Library/Developer/CommandLineTools/SDKs/MacOSX.sdk/usr/include/sys/_types" "_dev_t.h"
	.file	9 "/Library/Developer/CommandLineTools/SDKs/MacOSX.sdk/usr/include/sys" "stat.h"
	.file	10 "/Library/Developer/CommandLineTools/SDKs/MacOSX.sdk/usr/include/sys/_types" "_mode_t.h"
	.file	11 "/Library/Developer/CommandLineTools/SDKs/MacOSX.sdk/usr/include/sys/_types" "_nlink_t.h"
	.file	12 "/Library/Developer/CommandLineTools/SDKs/MacOSX.sdk/usr/include/sys/_types" "_uid_t.h"
	.file	13 "/Library/Developer/CommandLineTools/SDKs/MacOSX.sdk/usr/include/sys/_types" "_gid_t.h"
	.file	14 "/Library/Developer/CommandLineTools/SDKs/MacOSX.sdk/usr/include/sys/_types" "_timespec.h"
	.file	15 "/Library/Developer/CommandLineTools/SDKs/MacOSX.sdk/usr/include/sys/_types" "_off_t.h"
	.file	16 "/Library/Developer/CommandLineTools/SDKs/MacOSX.sdk/usr/include/sys/_types" "_blkcnt_t.h"
	.file	17 "/Library/Developer/CommandLineTools/SDKs/MacOSX.sdk/usr/include/sys/_types" "_blksize_t.h"