	.section	__TEXT,__text,regular,pure_instructions
	.build_version macos, 12, 0	sdk_version 12, 0
	.file	1 "/Library/Developer/CommandLineTools/SDKs/MacOSX.sdk/usr/include/_types" "_uint16_t.h"
	.file	2 "/Users/songsizhou/Documents/GitHub/u8g2_font_builder/u8g2/tools/font/bdfconv" "bdf_tga.c"
	.file	3 "/Library/Developer/CommandLineTools/SDKs/MacOSX.sdk/usr/include/_types" "_uint8_t.h"
	.file	4 "/Library/Developer/CommandLineTools/SDKs/MacOSX.sdk/usr/include/arm" "_types.h"
	.file	5 "/Library/Developer/CommandLineTools/SDKs/MacOSX.sdk/usr/include/sys/_types" "_size_t.h"
	.file	6 "/Library/Developer/CommandLineTools/SDKs/MacOSX.sdk/usr/include/sys/_types" "_int8_t.h"
	.globl	_tga_get_char_width             ; -- Begin function tga_get_char_width
	.p2align	2
_tga_get_char_width:                    ; @tga_get_char_width
Lfunc_begin0:
	.loc	2 66 0                          ; bdf_tga.c:66:0
	.cfi_startproc
; %bb.0:
	.loc	2 0 0 prologue_end              ; bdf_tga.c:0:0
	adrp	x8, _char_width@PAGE
	.loc	2 67 12                         ; bdf_tga.c:67:12
	ldr	w0, [x8, _char_width@PAGEOFF]
	.loc	2 67 5 is_stmt 0                ; bdf_tga.c:67:5
	ret
Ltmp0:
Lfunc_end0:
	.cfi_endproc
                                        ; -- End function
	.globl	_tga_get_char_height            ; -- Begin function tga_get_char_height
	.p2align	2
_tga_get_char_height:                   ; @tga_get_char_height
Lfunc_begin1:
	.loc	2 71 0 is_stmt 1                ; bdf_tga.c:71:0
	.cfi_startproc
; %bb.0:
	.loc	2 0 0 prologue_end              ; bdf_tga.c:0:0
	adrp	x8, _char_height@PAGE
	.loc	2 72 12                         ; bdf_tga.c:72:12
	ldr	w0, [x8, _char_height@PAGEOFF]
	.loc	2 72 5 is_stmt 0                ; bdf_tga.c:72:5
	ret
Ltmp1:
Lfunc_end1:
	.cfi_endproc
                                        ; -- End function
	.globl	_tga_init                       ; -- Begin function tga_init
	.p2align	2
_tga_init:                              ; @tga_init
Lfunc_begin2:
	.loc	2 76 0 is_stmt 1                ; bdf_tga.c:76:0
	.cfi_startproc
; %bb.0:
	sub	sp, sp, #32                     ; =32
	stp	x29, x30, [sp, #16]             ; 16-byte Folded Spill
	add	x29, sp, #16                    ; =16
	.cfi_def_cfa w29, 16
	.cfi_offset w30, -8
	.cfi_offset w29, -16
	sturh	w0, [x29, #-6]
	strh	w1, [sp, #8]
Ltmp2:
	.loc	2 0 0 prologue_end              ; bdf_tga.c:0:0
	adrp	x8, _tga_width@PAGE
	.loc	2 77 13                         ; bdf_tga.c:77:13
	strh	wzr, [x8, _tga_width@PAGEOFF]
	.loc	2 0 0 is_stmt 0                 ; bdf_tga.c:0:0
	adrp	x8, _tga_height@PAGE
	.loc	2 78 14 is_stmt 1               ; bdf_tga.c:78:14
	strh	wzr, [x8, _tga_height@PAGEOFF]
	.loc	2 0 0 is_stmt 0                 ; bdf_tga.c:0:0
	adrp	x8, _tga_used_height@PAGE
	.loc	2 79 19 is_stmt 1               ; bdf_tga.c:79:19
	strh	wzr, [x8, _tga_used_height@PAGEOFF]
	.loc	2 0 0 is_stmt 0                 ; bdf_tga.c:0:0
	adrp	x8, _tga_pixel_intersection@PAGE
	.loc	2 80 26 is_stmt 1               ; bdf_tga.c:80:26
	str	wzr, [x8, _tga_pixel_intersection@PAGEOFF]
Ltmp3:
	.loc	2 0 0 is_stmt 0                 ; bdf_tga.c:0:0
	adrp	x8, _tga_data@PAGE
	.loc	2 81 8 is_stmt 1                ; bdf_tga.c:81:8
	ldr	x8, [x8, _tga_data@PAGEOFF]
Ltmp4:
	.loc	2 81 8 is_stmt 0                ; bdf_tga.c:81:8
	cbz	x8, LBB2_2
; %bb.1:
Ltmp5:
	.loc	2 0 0                           ; bdf_tga.c:0:0
	adrp	x8, _tga_data@PAGE
	.loc	2 82 10 is_stmt 1               ; bdf_tga.c:82:10
	ldr	x0, [x8, _tga_data@PAGEOFF]
	.loc	2 82 5 is_stmt 0                ; bdf_tga.c:82:5
	bl	_free
Ltmp6:
LBB2_2:
	.loc	2 83 40 is_stmt 1               ; bdf_tga.c:83:40
	ldurh	w8, [x29, #-6]
                                        ; kill: def $x8 killed $w8
	.loc	2 83 50 is_stmt 0               ; bdf_tga.c:83:50
	ldrh	w9, [sp, #8]
                                        ; kill: def $x9 killed $w9
	.loc	2 83 41                         ; bdf_tga.c:83:41
	mul	x8, x8, x9
	mov	x9, #3
	.loc	2 83 51                         ; bdf_tga.c:83:51
	mul	x0, x8, x9
	.loc	2 83 25                         ; bdf_tga.c:83:25
	bl	_malloc
Ltmp7:
	.loc	2 0 0                           ; bdf_tga.c:0:0
	adrp	x8, _tga_data@PAGE
Ltmp8:
	.loc	2 83 12                         ; bdf_tga.c:83:12
	str	x0, [x8, _tga_data@PAGEOFF]
Ltmp9:
	.loc	2 84 8 is_stmt 1                ; bdf_tga.c:84:8
	ldr	x8, [x8, _tga_data@PAGEOFF]
Ltmp10:
	.loc	2 84 8 is_stmt 0                ; bdf_tga.c:84:8
	cbnz	x8, LBB2_4
; %bb.3:
Ltmp11:
	.loc	2 85 5 is_stmt 1                ; bdf_tga.c:85:5
	stur	wzr, [x29, #-4]
	b	LBB2_5
Ltmp12:
LBB2_4:
	.loc	2 86 15                         ; bdf_tga.c:86:15
	ldurh	w9, [x29, #-6]
	.loc	2 0 0 is_stmt 0                 ; bdf_tga.c:0:0
	adrp	x8, _tga_width@PAGE
	.loc	2 86 13                         ; bdf_tga.c:86:13
	strh	w9, [x8, _tga_width@PAGEOFF]
	.loc	2 87 16 is_stmt 1               ; bdf_tga.c:87:16
	ldrh	w10, [sp, #8]
	.loc	2 0 0 is_stmt 0                 ; bdf_tga.c:0:0
	adrp	x9, _tga_height@PAGE
	.loc	2 87 14                         ; bdf_tga.c:87:14
	strh	w10, [x9, _tga_height@PAGEOFF]
Ltmp13:
	.loc	2 0 0                           ; bdf_tga.c:0:0
	adrp	x10, _tga_data@PAGE
Ltmp14:
	.loc	2 88 3 is_stmt 1                ; bdf_tga.c:88:3
	ldr	x0, [x10, _tga_data@PAGEOFF]
	ldrh	w8, [x8, _tga_width@PAGEOFF]
	ldrh	w9, [x9, _tga_height@PAGEOFF]
	mul	w8, w8, w9
	mov	w9, #3
	mul	w9, w8, w9
                                        ; implicit-def: $x8
	mov	x8, x9
	sxtw	x2, w8
	mov	w1, #255
	mov	x3, #-1
	bl	___memset_chk
	mov	w8, #1
	.loc	2 89 3                          ; bdf_tga.c:89:3
	stur	w8, [x29, #-4]
LBB2_5:
	.loc	2 90 1                          ; bdf_tga.c:90:1
	ldur	w0, [x29, #-4]
	ldp	x29, x30, [sp, #16]             ; 16-byte Folded Reload
	add	sp, sp, #32                     ; =32
	ret
Ltmp15:
Lfunc_end2:
	.cfi_endproc
                                        ; -- End function
	.globl	_tga_clear                      ; -- Begin function tga_clear
	.p2align	2
_tga_clear:                             ; @tga_clear
Lfunc_begin3:
	.loc	2 93 0                          ; bdf_tga.c:93:0
	.cfi_startproc
; %bb.0:
	stp	x29, x30, [sp, #-16]!           ; 16-byte Folded Spill
	mov	x29, sp
	.cfi_def_cfa w29, 16
	.cfi_offset w30, -8
	.cfi_offset w29, -16
Ltmp16:
	.loc	2 0 0 prologue_end              ; bdf_tga.c:0:0
	adrp	x8, _tga_data@PAGE
	.loc	2 94 3                          ; bdf_tga.c:94:3
	ldr	x0, [x8, _tga_data@PAGEOFF]
	.loc	2 0 0 is_stmt 0                 ; bdf_tga.c:0:0
	adrp	x8, _tga_width@PAGE
	.loc	2 94 3                          ; bdf_tga.c:94:3
	ldrh	w8, [x8, _tga_width@PAGEOFF]
	.loc	2 0 0                           ; bdf_tga.c:0:0
	adrp	x9, _tga_height@PAGE
	.loc	2 94 3                          ; bdf_tga.c:94:3
	ldrh	w9, [x9, _tga_height@PAGEOFF]
	mul	w8, w8, w9
	mov	w9, #3
	mul	w9, w8, w9
                                        ; implicit-def: $x8
	mov	x8, x9
	sxtw	x2, w8
	mov	w1, #255
	mov	x3, #-1
	bl	___memset_chk
	.loc	2 95 1 is_stmt 1                ; bdf_tga.c:95:1
	ldp	x29, x30, [sp], #16             ; 16-byte Folded Reload
	ret
Ltmp17:
Lfunc_end3:
	.cfi_endproc
                                        ; -- End function
	.globl	_tga_set_pixel                  ; -- Begin function tga_set_pixel
	.p2align	2
_tga_set_pixel:                         ; @tga_set_pixel
Lfunc_begin4:
	.loc	2 98 0                          ; bdf_tga.c:98:0
	.cfi_startproc
; %bb.0:
	sub	sp, sp, #16                     ; =16
	.cfi_def_cfa_offset 16
	strh	w0, [sp, #14]
	strh	w1, [sp, #12]
	strb	w2, [sp, #11]
	strb	w3, [sp, #10]
	strb	w4, [sp, #9]
Ltmp19:
	.loc	2 100 8 prologue_end            ; bdf_tga.c:100:8
	ldrh	w8, [sp, #12]
	.loc	2 0 0 is_stmt 0                 ; bdf_tga.c:0:0
	adrp	x9, _tga_height@PAGE
	.loc	2 100 12                        ; bdf_tga.c:100:12
	ldrh	w9, [x9, _tga_height@PAGEOFF]
Ltmp20:
	.loc	2 100 8                         ; bdf_tga.c:100:8
	subs	w8, w8, w9
	b.lt	LBB4_2
; %bb.1:
Ltmp21:
	.loc	2 101 5 is_stmt 1               ; bdf_tga.c:101:5
	b	LBB4_11
Ltmp22:
LBB4_2:
	.loc	2 102 8                         ; bdf_tga.c:102:8
	ldrh	w8, [sp, #14]
	.loc	2 0 0 is_stmt 0                 ; bdf_tga.c:0:0
	adrp	x9, _tga_width@PAGE
	.loc	2 102 12                        ; bdf_tga.c:102:12
	ldrh	w9, [x9, _tga_width@PAGEOFF]
Ltmp23:
	.loc	2 102 8                         ; bdf_tga.c:102:8
	subs	w8, w8, w9
	b.lt	LBB4_4
; %bb.3:
Ltmp24:
	.loc	2 103 5 is_stmt 1               ; bdf_tga.c:103:5
	b	LBB4_11
Ltmp25:
LBB4_4:
	.loc	2 0 0 is_stmt 0                 ; bdf_tga.c:0:0
	adrp	x8, _tga_used_height@PAGE
	.loc	2 104 8 is_stmt 1               ; bdf_tga.c:104:8
	ldrh	w8, [x8, _tga_used_height@PAGEOFF]
	.loc	2 104 26 is_stmt 0              ; bdf_tga.c:104:26
	ldrh	w9, [sp, #12]
Ltmp26:
	.loc	2 104 8                         ; bdf_tga.c:104:8
	subs	w8, w8, w9
	b.ge	LBB4_6
; %bb.5:
Ltmp27:
	.loc	2 105 23 is_stmt 1              ; bdf_tga.c:105:23
	ldrh	w8, [sp, #12]
	.loc	2 0 0 is_stmt 0                 ; bdf_tga.c:0:0
	adrp	x9, _tga_used_height@PAGE
	.loc	2 105 21                        ; bdf_tga.c:105:21
	strh	w8, [x9, _tga_used_height@PAGEOFF]
Ltmp28:
LBB4_6:
	.loc	2 0 0                           ; bdf_tga.c:0:0
	adrp	x8, _tga_data@PAGE
	.loc	2 107 7 is_stmt 1               ; bdf_tga.c:107:7
	ldr	x8, [x8, _tga_data@PAGEOFF]
Ltmp29:
	.loc	2 0 0 is_stmt 0                 ; bdf_tga.c:0:0
	adrp	x9, _tga_height@PAGE
Ltmp30:
	.loc	2 107 19                        ; bdf_tga.c:107:19
	ldrh	w9, [x9, _tga_height@PAGEOFF]
	.loc	2 107 30                        ; bdf_tga.c:107:30
	ldrh	w10, [sp, #12]
	.loc	2 107 29                        ; bdf_tga.c:107:29
	subs	w9, w9, w10
	.loc	2 107 31                        ; bdf_tga.c:107:31
	subs	w10, w9, #1                     ; =1
                                        ; implicit-def: $x9
	.loc	2 107 18                        ; bdf_tga.c:107:18
	mov	x9, x10
	sxtw	x9, w9
Ltmp31:
	.loc	2 0 0                           ; bdf_tga.c:0:0
	adrp	x10, _tga_width@PAGE
Ltmp32:
	.loc	2 107 43                        ; bdf_tga.c:107:43
	ldrh	w10, [x10, _tga_width@PAGEOFF]
                                        ; kill: def $x10 killed $w10
	.loc	2 107 34                        ; bdf_tga.c:107:34
	mul	x9, x9, x10
	mov	x10, #3
	.loc	2 107 52                        ; bdf_tga.c:107:52
	mul	x9, x9, x10
	.loc	2 107 16                        ; bdf_tga.c:107:16
	add	x8, x8, x9
	.loc	2 107 65                        ; bdf_tga.c:107:65
	ldrh	w9, [sp, #14]
                                        ; kill: def $x9 killed $w9
	.loc	2 107 66                        ; bdf_tga.c:107:66
	mul	x9, x9, x10
	.loc	2 107 55                        ; bdf_tga.c:107:55
	add	x8, x8, x9
	.loc	2 107 5                         ; bdf_tga.c:107:5
	str	x8, [sp]
Ltmp33:
	.loc	2 109 8 is_stmt 1               ; bdf_tga.c:109:8
	ldr	x8, [sp]
	ldrb	w8, [x8]
	.loc	2 109 20 is_stmt 0              ; bdf_tga.c:109:20
	subs	w8, w8, #255                    ; =255
	b.ne	LBB4_9
; %bb.7:
	.loc	2 109 23                        ; bdf_tga.c:109:23
	ldr	x8, [sp]
	ldrb	w8, [x8, #1]
	.loc	2 109 35                        ; bdf_tga.c:109:35
	subs	w8, w8, #255                    ; =255
	b.ne	LBB4_9
; %bb.8:
	.loc	2 109 38                        ; bdf_tga.c:109:38
	ldr	x8, [sp]
	ldrb	w8, [x8, #2]
Ltmp34:
	.loc	2 109 8                         ; bdf_tga.c:109:8
	subs	w8, w8, #255                    ; =255
	b.eq	LBB4_10
LBB4_9:
Ltmp35:
	.loc	2 0 0                           ; bdf_tga.c:0:0
	adrp	x9, _tga_pixel_intersection@PAGE
	mov	w8, #1
	.loc	2 110 27 is_stmt 1              ; bdf_tga.c:110:27
	str	w8, [x9, _tga_pixel_intersection@PAGEOFF]
Ltmp36:
LBB4_10:
	.loc	2 114 10                        ; bdf_tga.c:114:10
	ldrb	w8, [sp, #9]
	.loc	2 114 5 is_stmt 0               ; bdf_tga.c:114:5
	ldr	x9, [sp]
	add	x10, x9, #1                     ; =1
	str	x10, [sp]
	.loc	2 114 8                         ; bdf_tga.c:114:8
	strb	w8, [x9]
	.loc	2 115 10 is_stmt 1              ; bdf_tga.c:115:10
	ldrb	w8, [sp, #10]
	.loc	2 115 5 is_stmt 0               ; bdf_tga.c:115:5
	ldr	x9, [sp]
	add	x10, x9, #1                     ; =1
	str	x10, [sp]
	.loc	2 115 8                         ; bdf_tga.c:115:8
	strb	w8, [x9]
	.loc	2 116 10 is_stmt 1              ; bdf_tga.c:116:10
	ldrb	w8, [sp, #11]
	.loc	2 116 5 is_stmt 0               ; bdf_tga.c:116:5
	ldr	x9, [sp]
	add	x10, x9, #1                     ; =1
	str	x10, [sp]
	.loc	2 116 8                         ; bdf_tga.c:116:8
	strb	w8, [x9]
LBB4_11:
	.loc	2 117 1 is_stmt 1               ; bdf_tga.c:117:1
	add	sp, sp, #16                     ; =16
	ret
Ltmp37:
Lfunc_end4:
	.cfi_endproc
                                        ; -- End function
	.globl	_tga_is_pixel_intersection      ; -- Begin function tga_is_pixel_intersection
	.p2align	2
_tga_is_pixel_intersection:             ; @tga_is_pixel_intersection
Lfunc_begin5:
	.loc	2 120 0                         ; bdf_tga.c:120:0
	.cfi_startproc
; %bb.0:
	.loc	2 0 0 prologue_end              ; bdf_tga.c:0:0
	adrp	x8, _tga_pixel_intersection@PAGE
	.loc	2 121 9                         ; bdf_tga.c:121:9
	ldr	w0, [x8, _tga_pixel_intersection@PAGEOFF]
	.loc	2 121 2 is_stmt 0               ; bdf_tga.c:121:2
	ret
Ltmp38:
Lfunc_end5:
	.cfi_endproc
                                        ; -- End function
	.globl	_tga_clear_pixel_intersection   ; -- Begin function tga_clear_pixel_intersection
	.p2align	2
_tga_clear_pixel_intersection:          ; @tga_clear_pixel_intersection
Lfunc_begin6:
	.loc	2 125 0 is_stmt 1               ; bdf_tga.c:125:0
	.cfi_startproc
; %bb.0:
	.loc	2 0 0 prologue_end              ; bdf_tga.c:0:0
	adrp	x8, _tga_pixel_intersection@PAGE
	.loc	2 126 25                        ; bdf_tga.c:126:25
	str	wzr, [x8, _tga_pixel_intersection@PAGEOFF]
	.loc	2 127 1                         ; bdf_tga.c:127:1
	ret
Ltmp39:
Lfunc_end6:
	.cfi_endproc
                                        ; -- End function
	.globl	_tga_write_byte                 ; -- Begin function tga_write_byte
	.p2align	2
_tga_write_byte:                        ; @tga_write_byte
Lfunc_begin7:
	.loc	2 130 0                         ; bdf_tga.c:130:0
	.cfi_startproc
; %bb.0:
	sub	sp, sp, #32                     ; =32
	stp	x29, x30, [sp, #16]             ; 16-byte Folded Spill
	add	x29, sp, #16                    ; =16
	.cfi_def_cfa w29, 16
	.cfi_offset w30, -8
	.cfi_offset w29, -16
	str	x0, [sp, #8]
	strb	w1, [sp, #7]
Ltmp40:
	.loc	2 131 9 prologue_end            ; bdf_tga.c:131:9
	ldrb	w0, [sp, #7]
	.loc	2 131 15 is_stmt 0              ; bdf_tga.c:131:15
	ldr	x1, [sp, #8]
	.loc	2 131 3                         ; bdf_tga.c:131:3
	bl	_fputc
	.loc	2 132 1 is_stmt 1               ; bdf_tga.c:132:1
	ldp	x29, x30, [sp, #16]             ; 16-byte Folded Reload
	add	sp, sp, #32                     ; =32
	ret
Ltmp41:
Lfunc_end7:
	.cfi_endproc
                                        ; -- End function
	.globl	_tga_write_word                 ; -- Begin function tga_write_word
	.p2align	2
_tga_write_word:                        ; @tga_write_word
Lfunc_begin8:
	.loc	2 135 0                         ; bdf_tga.c:135:0
	.cfi_startproc
; %bb.0:
	sub	sp, sp, #32                     ; =32
	stp	x29, x30, [sp, #16]             ; 16-byte Folded Spill
	add	x29, sp, #16                    ; =16
	.cfi_def_cfa w29, 16
	.cfi_offset w30, -8
	.cfi_offset w29, -16
	str	x0, [sp, #8]
	strh	w1, [sp, #6]
Ltmp42:
	.loc	2 136 18 prologue_end           ; bdf_tga.c:136:18
	ldr	x0, [sp, #8]
	.loc	2 136 22 is_stmt 0              ; bdf_tga.c:136:22
	ldrh	w8, [sp, #6]
	.loc	2 136 26                        ; bdf_tga.c:136:26
	and	w8, w8, #0xff
	.loc	2 136 3                         ; bdf_tga.c:136:3
	and	w1, w8, #0xff
	bl	_tga_write_byte
	.loc	2 137 18 is_stmt 1              ; bdf_tga.c:137:18
	ldr	x0, [sp, #8]
	.loc	2 137 22 is_stmt 0              ; bdf_tga.c:137:22
	ldrh	w8, [sp, #6]
	.loc	2 137 26                        ; bdf_tga.c:137:26
	asr	w8, w8, #8
	.loc	2 137 3                         ; bdf_tga.c:137:3
	and	w1, w8, #0xff
	bl	_tga_write_byte
	.loc	2 138 1 is_stmt 1               ; bdf_tga.c:138:1
	ldp	x29, x30, [sp, #16]             ; 16-byte Folded Reload
	add	sp, sp, #32                     ; =32
	ret
Ltmp43:
Lfunc_end8:
	.cfi_endproc
                                        ; -- End function
	.globl	_tga_save                       ; -- Begin function tga_save
	.p2align	2
_tga_save:                              ; @tga_save
Lfunc_begin9:
	.loc	2 141 0                         ; bdf_tga.c:141:0
	.cfi_startproc
; %bb.0:
	sub	sp, sp, #64                     ; =64
	stp	x29, x30, [sp, #48]             ; 16-byte Folded Spill
	add	x29, sp, #48                    ; =48
	.cfi_def_cfa w29, 16
	.cfi_offset w30, -8
	.cfi_offset w29, -16
	stur	x0, [x29, #-8]
Ltmp44:
	.loc	2 143 14 prologue_end           ; bdf_tga.c:143:14
	ldur	x0, [x29, #-8]
	.loc	2 0 0 is_stmt 0                 ; bdf_tga.c:0:0
	adrp	x1, l_.str@PAGE
	add	x1, x1, l_.str@PAGEOFF
	.loc	2 143 8                         ; bdf_tga.c:143:8
	bl	_fopen
	.loc	2 143 6                         ; bdf_tga.c:143:6
	stur	x0, [x29, #-16]
Ltmp45:
	.loc	2 144 8 is_stmt 1               ; bdf_tga.c:144:8
	ldur	x8, [x29, #-16]
Ltmp46:
	.loc	2 144 8 is_stmt 0               ; bdf_tga.c:144:8
	cbz	x8, LBB9_2
; %bb.1:
Ltmp47:
	.loc	2 146 20 is_stmt 1              ; bdf_tga.c:146:20
	ldur	x0, [x29, #-16]
	mov	w1, #0
	stur	w1, [x29, #-20]                 ; 4-byte Folded Spill
	.loc	2 146 5 is_stmt 0               ; bdf_tga.c:146:5
	bl	_tga_write_byte
	ldur	w1, [x29, #-20]                 ; 4-byte Folded Reload
	.loc	2 147 20 is_stmt 1              ; bdf_tga.c:147:20
	ldur	x0, [x29, #-16]
	.loc	2 147 5 is_stmt 0               ; bdf_tga.c:147:5
	bl	_tga_write_byte
	.loc	2 148 20 is_stmt 1              ; bdf_tga.c:148:20
	ldur	x0, [x29, #-16]
	mov	w1, #2
	.loc	2 148 5 is_stmt 0               ; bdf_tga.c:148:5
	bl	_tga_write_byte
	ldur	w1, [x29, #-20]                 ; 4-byte Folded Reload
	.loc	2 149 20 is_stmt 1              ; bdf_tga.c:149:20
	ldur	x0, [x29, #-16]
	.loc	2 149 5 is_stmt 0               ; bdf_tga.c:149:5
	bl	_tga_write_word
	ldur	w1, [x29, #-20]                 ; 4-byte Folded Reload
	.loc	2 150 20 is_stmt 1              ; bdf_tga.c:150:20
	ldur	x0, [x29, #-16]
	.loc	2 150 5 is_stmt 0               ; bdf_tga.c:150:5
	bl	_tga_write_word
	ldur	w1, [x29, #-20]                 ; 4-byte Folded Reload
	.loc	2 151 20 is_stmt 1              ; bdf_tga.c:151:20
	ldur	x0, [x29, #-16]
	.loc	2 151 5 is_stmt 0               ; bdf_tga.c:151:5
	bl	_tga_write_byte
	ldur	w1, [x29, #-20]                 ; 4-byte Folded Reload
	.loc	2 152 20 is_stmt 1              ; bdf_tga.c:152:20
	ldur	x0, [x29, #-16]
	.loc	2 152 5 is_stmt 0               ; bdf_tga.c:152:5
	bl	_tga_write_word
	ldur	w1, [x29, #-20]                 ; 4-byte Folded Reload
	.loc	2 153 20 is_stmt 1              ; bdf_tga.c:153:20
	ldur	x0, [x29, #-16]
	.loc	2 153 5 is_stmt 0               ; bdf_tga.c:153:5
	bl	_tga_write_word
	.loc	2 154 20 is_stmt 1              ; bdf_tga.c:154:20
	ldur	x0, [x29, #-16]
	.loc	2 0 0 is_stmt 0                 ; bdf_tga.c:0:0
	adrp	x8, _tga_width@PAGE
	str	x8, [sp, #8]                    ; 8-byte Folded Spill
	.loc	2 154 24                        ; bdf_tga.c:154:24
	ldrh	w1, [x8, _tga_width@PAGEOFF]
	.loc	2 154 5                         ; bdf_tga.c:154:5
	bl	_tga_write_word
	.loc	2 155 20 is_stmt 1              ; bdf_tga.c:155:20
	ldur	x0, [x29, #-16]
	.loc	2 0 0 is_stmt 0                 ; bdf_tga.c:0:0
	adrp	x8, _tga_used_height@PAGE
	str	x8, [sp, #16]                   ; 8-byte Folded Spill
	.loc	2 155 24                        ; bdf_tga.c:155:24
	ldrh	w8, [x8, _tga_used_height@PAGEOFF]
	.loc	2 155 39                        ; bdf_tga.c:155:39
	add	w8, w8, #1                      ; =1
	.loc	2 155 5                         ; bdf_tga.c:155:5
	and	w1, w8, #0xffff
	bl	_tga_write_word
	.loc	2 156 20 is_stmt 1              ; bdf_tga.c:156:20
	ldur	x0, [x29, #-16]
	mov	w1, #24
	.loc	2 156 5 is_stmt 0               ; bdf_tga.c:156:5
	bl	_tga_write_byte
	ldur	w1, [x29, #-20]                 ; 4-byte Folded Reload
	.loc	2 157 20 is_stmt 1              ; bdf_tga.c:157:20
	ldur	x0, [x29, #-16]
	.loc	2 157 5 is_stmt 0               ; bdf_tga.c:157:5
	bl	_tga_write_byte
	ldr	x9, [sp, #8]                    ; 8-byte Folded Reload
	ldr	x8, [sp, #16]                   ; 8-byte Folded Reload
	.loc	2 0 0                           ; bdf_tga.c:0:0
	adrp	x10, _tga_data@PAGE
	.loc	2 158 12 is_stmt 1              ; bdf_tga.c:158:12
	ldr	x11, [x10, _tga_data@PAGEOFF]
	.loc	2 0 0 is_stmt 0                 ; bdf_tga.c:0:0
	adrp	x10, _tga_height@PAGE
	.loc	2 158 24                        ; bdf_tga.c:158:24
	ldrh	w10, [x10, _tga_height@PAGEOFF]
	.loc	2 158 38                        ; bdf_tga.c:158:38
	ldrh	w12, [x8, _tga_used_height@PAGEOFF]
	.loc	2 158 53                        ; bdf_tga.c:158:53
	add	w12, w12, #1                    ; =1
	.loc	2 158 35                        ; bdf_tga.c:158:35
	subs	w10, w10, w12
	.loc	2 158 58                        ; bdf_tga.c:158:58
	ldrh	w12, [x9, _tga_width@PAGEOFF]
	.loc	2 158 57                        ; bdf_tga.c:158:57
	mul	w12, w10, w12
	mov	w10, #3
	.loc	2 158 67                        ; bdf_tga.c:158:67
	mul	w12, w12, w10
	.loc	2 158 21                        ; bdf_tga.c:158:21
	add	x0, x11, w12, sxtw
	.loc	2 158 72                        ; bdf_tga.c:158:72
	ldrh	w9, [x9, _tga_width@PAGEOFF]
	.loc	2 158 81                        ; bdf_tga.c:158:81
	mul	w10, w9, w10
                                        ; implicit-def: $x9
	.loc	2 158 72                        ; bdf_tga.c:158:72
	mov	x9, x10
	sxtw	x1, w9
	.loc	2 158 85                        ; bdf_tga.c:158:85
	ldrh	w8, [x8, _tga_used_height@PAGEOFF]
	.loc	2 158 100                       ; bdf_tga.c:158:100
	add	w9, w8, #1                      ; =1
                                        ; implicit-def: $x8
	.loc	2 158 85                        ; bdf_tga.c:158:85
	mov	x8, x9
	sxtw	x2, w8
	.loc	2 158 104                       ; bdf_tga.c:158:104
	ldur	x3, [x29, #-16]
	.loc	2 158 5                         ; bdf_tga.c:158:5
	bl	_fwrite
	ldur	w1, [x29, #-20]                 ; 4-byte Folded Reload
	.loc	2 159 20 is_stmt 1              ; bdf_tga.c:159:20
	ldur	x0, [x29, #-16]
	.loc	2 159 5 is_stmt 0               ; bdf_tga.c:159:5
	bl	_tga_write_word
	ldur	w1, [x29, #-20]                 ; 4-byte Folded Reload
	.loc	2 160 20 is_stmt 1              ; bdf_tga.c:160:20
	ldur	x0, [x29, #-16]
	.loc	2 160 5 is_stmt 0               ; bdf_tga.c:160:5
	bl	_tga_write_word
	ldur	w1, [x29, #-20]                 ; 4-byte Folded Reload
	.loc	2 161 20 is_stmt 1              ; bdf_tga.c:161:20
	ldur	x0, [x29, #-16]
	.loc	2 161 5 is_stmt 0               ; bdf_tga.c:161:5
	bl	_tga_write_word
	ldur	w1, [x29, #-20]                 ; 4-byte Folded Reload
	.loc	2 162 20 is_stmt 1              ; bdf_tga.c:162:20
	ldur	x0, [x29, #-16]
	.loc	2 162 5 is_stmt 0               ; bdf_tga.c:162:5
	bl	_tga_write_word
	.loc	2 163 40 is_stmt 1              ; bdf_tga.c:163:40
	ldur	x3, [x29, #-16]
	.loc	2 0 0 is_stmt 0                 ; bdf_tga.c:0:0
	adrp	x0, l_.str.1@PAGE
	add	x0, x0, l_.str.1@PAGEOFF
	mov	x1, #18
	mov	x2, #1
	.loc	2 163 5                         ; bdf_tga.c:163:5
	bl	_fwrite
	.loc	2 164 12 is_stmt 1              ; bdf_tga.c:164:12
	ldur	x0, [x29, #-16]
	.loc	2 164 5 is_stmt 0               ; bdf_tga.c:164:5
	bl	_fclose
Ltmp48:
LBB9_2:
	.loc	2 166 1 is_stmt 1               ; bdf_tga.c:166:1
	ldp	x29, x30, [sp, #48]             ; 16-byte Folded Reload
	add	sp, sp, #64                     ; =64
	ret
Ltmp49:
Lfunc_end9:
	.cfi_endproc
                                        ; -- End function
	.globl	_tga_set_font                   ; -- Begin function tga_set_font
	.p2align	2
_tga_set_font:                          ; @tga_set_font
Lfunc_begin10:
	.loc	2 205 0                         ; bdf_tga.c:205:0
	.cfi_startproc
; %bb.0:
	sub	sp, sp, #16                     ; =16
	.cfi_def_cfa_offset 16
	str	x0, [sp, #8]
Ltmp51:
	.loc	2 206 22 prologue_end           ; bdf_tga.c:206:22
	ldr	x8, [sp, #8]
	add	x9, x8, #1                      ; =1
	str	x9, [sp, #8]
	.loc	2 206 17 is_stmt 0              ; bdf_tga.c:206:17
	ldrb	w8, [x8]
	.loc	2 0 0                           ; bdf_tga.c:0:0
	adrp	x9, _glyph_cnt@PAGE
	.loc	2 206 15                        ; bdf_tga.c:206:15
	str	w8, [x9, _glyph_cnt@PAGEOFF]
	.loc	2 207 9 is_stmt 1               ; bdf_tga.c:207:9
	ldr	x8, [sp, #8]
	add	x8, x8, #1                      ; =1
	str	x8, [sp, #8]
	.loc	2 208 23                        ; bdf_tga.c:208:23
	ldr	x8, [sp, #8]
	add	x9, x8, #1                      ; =1
	str	x9, [sp, #8]
	.loc	2 208 18 is_stmt 0              ; bdf_tga.c:208:18
	ldrb	w8, [x8]
	.loc	2 0 0                           ; bdf_tga.c:0:0
	adrp	x9, _bits_per_0@PAGE
	.loc	2 208 16                        ; bdf_tga.c:208:16
	str	w8, [x9, _bits_per_0@PAGEOFF]
	.loc	2 209 23 is_stmt 1              ; bdf_tga.c:209:23
	ldr	x8, [sp, #8]
	add	x9, x8, #1                      ; =1
	str	x9, [sp, #8]
	.loc	2 209 18 is_stmt 0              ; bdf_tga.c:209:18
	ldrb	w8, [x8]
	.loc	2 0 0                           ; bdf_tga.c:0:0
	adrp	x9, _bits_per_1@PAGE
	.loc	2 209 16                        ; bdf_tga.c:209:16
	str	w8, [x9, _bits_per_1@PAGEOFF]
	.loc	2 210 32 is_stmt 1              ; bdf_tga.c:210:32
	ldr	x8, [sp, #8]
	add	x9, x8, #1                      ; =1
	str	x9, [sp, #8]
	.loc	2 210 27 is_stmt 0              ; bdf_tga.c:210:27
	ldrb	w8, [x8]
	.loc	2 0 0                           ; bdf_tga.c:0:0
	adrp	x9, _bits_per_char_width@PAGE
	.loc	2 210 25                        ; bdf_tga.c:210:25
	str	w8, [x9, _bits_per_char_width@PAGEOFF]
	.loc	2 211 33 is_stmt 1              ; bdf_tga.c:211:33
	ldr	x8, [sp, #8]
	add	x9, x8, #1                      ; =1
	str	x9, [sp, #8]
	.loc	2 211 28 is_stmt 0              ; bdf_tga.c:211:28
	ldrb	w8, [x8]
	.loc	2 0 0                           ; bdf_tga.c:0:0
	adrp	x9, _bits_per_char_height@PAGE
	.loc	2 211 26                        ; bdf_tga.c:211:26
	str	w8, [x9, _bits_per_char_height@PAGEOFF]
	.loc	2 212 28 is_stmt 1              ; bdf_tga.c:212:28
	ldr	x8, [sp, #8]
	add	x9, x8, #1                      ; =1
	str	x9, [sp, #8]
	.loc	2 212 23 is_stmt 0              ; bdf_tga.c:212:23
	ldrb	w8, [x8]
	.loc	2 0 0                           ; bdf_tga.c:0:0
	adrp	x9, _bits_per_char_x@PAGE
	.loc	2 212 21                        ; bdf_tga.c:212:21
	str	w8, [x9, _bits_per_char_x@PAGEOFF]
	.loc	2 213 28 is_stmt 1              ; bdf_tga.c:213:28
	ldr	x8, [sp, #8]
	add	x9, x8, #1                      ; =1
	str	x9, [sp, #8]
	.loc	2 213 23 is_stmt 0              ; bdf_tga.c:213:23
	ldrb	w8, [x8]
	.loc	2 0 0                           ; bdf_tga.c:0:0
	adrp	x9, _bits_per_char_y@PAGE
	.loc	2 213 21                        ; bdf_tga.c:213:21
	str	w8, [x9, _bits_per_char_y@PAGEOFF]
	.loc	2 214 29 is_stmt 1              ; bdf_tga.c:214:29
	ldr	x8, [sp, #8]
	add	x9, x8, #1                      ; =1
	str	x9, [sp, #8]
	.loc	2 214 24 is_stmt 0              ; bdf_tga.c:214:24
	ldrb	w8, [x8]
	.loc	2 0 0                           ; bdf_tga.c:0:0
	adrp	x9, _bits_per_delta_x@PAGE
	.loc	2 214 22                        ; bdf_tga.c:214:22
	str	w8, [x9, _bits_per_delta_x@PAGEOFF]
	.loc	2 215 23 is_stmt 1              ; bdf_tga.c:215:23
	ldr	x8, [sp, #8]
	add	x9, x8, #1                      ; =1
	str	x9, [sp, #8]
	.loc	2 215 18 is_stmt 0              ; bdf_tga.c:215:18
	ldrb	w8, [x8]
	.loc	2 0 0                           ; bdf_tga.c:0:0
	adrp	x9, _char_width@PAGE
	.loc	2 215 16                        ; bdf_tga.c:215:16
	str	w8, [x9, _char_width@PAGEOFF]
	.loc	2 216 24 is_stmt 1              ; bdf_tga.c:216:24
	ldr	x8, [sp, #8]
	add	x9, x8, #1                      ; =1
	str	x9, [sp, #8]
	.loc	2 216 19 is_stmt 0              ; bdf_tga.c:216:19
	ldrb	w8, [x8]
	.loc	2 0 0                           ; bdf_tga.c:0:0
	adrp	x9, _char_height@PAGE
	.loc	2 216 17                        ; bdf_tga.c:216:17
	str	w8, [x9, _char_height@PAGEOFF]
	.loc	2 217 9 is_stmt 1               ; bdf_tga.c:217:9
	ldr	x8, [sp, #8]
	add	x8, x8, #1                      ; =1
	str	x8, [sp, #8]
	.loc	2 218 31                        ; bdf_tga.c:218:31
	ldr	x8, [sp, #8]
	.loc	2 218 20 is_stmt 0              ; bdf_tga.c:218:20
	ldrsb	w8, [x8]
	.loc	2 0 0                           ; bdf_tga.c:0:0
	adrp	x9, _char_descent@PAGE
	.loc	2 218 18                        ; bdf_tga.c:218:18
	str	w8, [x9, _char_descent@PAGEOFF]
	.loc	2 219 9 is_stmt 1               ; bdf_tga.c:219:9
	ldr	x8, [sp, #8]
	add	x8, x8, #1                      ; =1
	str	x8, [sp, #8]
	.loc	2 221 9                         ; bdf_tga.c:221:9
	ldr	x8, [sp, #8]
	add	x8, x8, #1                      ; =1
	str	x8, [sp, #8]
	.loc	2 222 9                         ; bdf_tga.c:222:9
	ldr	x8, [sp, #8]
	add	x8, x8, #1                      ; =1
	str	x8, [sp, #8]
	.loc	2 223 9                         ; bdf_tga.c:223:9
	ldr	x8, [sp, #8]
	add	x8, x8, #1                      ; =1
	str	x8, [sp, #8]
	.loc	2 224 9                         ; bdf_tga.c:224:9
	ldr	x8, [sp, #8]
	add	x8, x8, #1                      ; =1
	str	x8, [sp, #8]
	.loc	2 226 9                         ; bdf_tga.c:226:9
	ldr	x8, [sp, #8]
	add	x8, x8, #1                      ; =1
	str	x8, [sp, #8]
	.loc	2 227 9                         ; bdf_tga.c:227:9
	ldr	x8, [sp, #8]
	add	x8, x8, #1                      ; =1
	str	x8, [sp, #8]
	.loc	2 228 9                         ; bdf_tga.c:228:9
	ldr	x8, [sp, #8]
	add	x8, x8, #1                      ; =1
	str	x8, [sp, #8]
	.loc	2 229 9                         ; bdf_tga.c:229:9
	ldr	x8, [sp, #8]
	add	x8, x8, #1                      ; =1
	str	x8, [sp, #8]
	.loc	2 231 30                        ; bdf_tga.c:231:30
	ldr	x8, [sp, #8]
	add	x9, x8, #1                      ; =1
	str	x9, [sp, #8]
	.loc	2 231 25 is_stmt 0              ; bdf_tga.c:231:25
	ldrb	w8, [x8]
	.loc	2 0 0                           ; bdf_tga.c:0:0
	adrp	x9, _unicode_start_pos@PAGE
	.loc	2 231 23                        ; bdf_tga.c:231:23
	str	w8, [x9, _unicode_start_pos@PAGEOFF]
	.loc	2 232 23 is_stmt 1              ; bdf_tga.c:232:23
	ldr	w8, [x9, _unicode_start_pos@PAGEOFF]
	lsl	w8, w8, #8
	str	w8, [x9, _unicode_start_pos@PAGEOFF]
	.loc	2 233 31                        ; bdf_tga.c:233:31
	ldr	x8, [sp, #8]
	add	x10, x8, #1                     ; =1
	str	x10, [sp, #8]
	.loc	2 233 26 is_stmt 0              ; bdf_tga.c:233:26
	ldrb	w10, [x8]
	.loc	2 233 23                        ; bdf_tga.c:233:23
	ldr	w8, [x9, _unicode_start_pos@PAGEOFF]
	orr	w8, w8, w10
	str	w8, [x9, _unicode_start_pos@PAGEOFF]
	.loc	2 235 16 is_stmt 1              ; bdf_tga.c:235:16
	ldr	x8, [sp, #8]
	.loc	2 0 0 is_stmt 0                 ; bdf_tga.c:0:0
	adrp	x9, _tga_font@PAGE
	.loc	2 235 14                        ; bdf_tga.c:235:14
	str	x8, [x9, _tga_font@PAGEOFF]
	.loc	2 237 1 is_stmt 1               ; bdf_tga.c:237:1
	add	sp, sp, #16                     ; =16
	ret
Ltmp52:
Lfunc_end10:
	.cfi_endproc
                                        ; -- End function
	.globl	_tga_get_glyph_data             ; -- Begin function tga_get_glyph_data
	.p2align	2
_tga_get_glyph_data:                    ; @tga_get_glyph_data
Lfunc_begin11:
	.loc	2 240 0                         ; bdf_tga.c:240:0
	.cfi_startproc
; %bb.0:
	sub	sp, sp, #48                     ; =48
	.cfi_def_cfa_offset 48
	strh	w0, [sp, #38]
Ltmp54:
	.loc	2 0 0 prologue_end              ; bdf_tga.c:0:0
	adrp	x8, _tga_font@PAGE
	.loc	2 241 19                        ; bdf_tga.c:241:19
	ldr	x8, [x8, _tga_font@PAGEOFF]
	.loc	2 241 12 is_stmt 0              ; bdf_tga.c:241:12
	str	x8, [sp, #24]
Ltmp55:
	.loc	2 242 8 is_stmt 1               ; bdf_tga.c:242:8
	ldrh	w8, [sp, #38]
Ltmp56:
	.loc	2 242 8 is_stmt 0               ; bdf_tga.c:242:8
	subs	w8, w8, #255                    ; =255
	b.gt	LBB11_8
; %bb.1:
LBB11_2:                                ; =>This Inner Loop Header: Depth=1
Ltmp57:
	.loc	2 246 12 is_stmt 1              ; bdf_tga.c:246:12
	ldr	x8, [sp, #24]
	ldrb	w8, [x8, #1]
Ltmp58:
	.loc	2 246 12 is_stmt 0              ; bdf_tga.c:246:12
	cbnz	w8, LBB11_4
; %bb.3:
Ltmp59:
	.loc	2 247 2 is_stmt 1               ; bdf_tga.c:247:2
	b	LBB11_7
Ltmp60:
LBB11_4:                                ;   in Loop: Header=BB11_2 Depth=1
	.loc	2 248 12                        ; bdf_tga.c:248:12
	ldr	x8, [sp, #24]
	ldrb	w8, [x8]
	.loc	2 248 23 is_stmt 0              ; bdf_tga.c:248:23
	ldrh	w9, [sp, #38]
Ltmp61:
	.loc	2 248 12                        ; bdf_tga.c:248:12
	subs	w8, w8, w9
	b.ne	LBB11_6
; %bb.5:
Ltmp62:
	.loc	2 250 9 is_stmt 1               ; bdf_tga.c:250:9
	ldr	x8, [sp, #24]
	.loc	2 250 2 is_stmt 0               ; bdf_tga.c:250:2
	str	x8, [sp, #40]
	b	LBB11_19
Ltmp63:
LBB11_6:                                ;   in Loop: Header=BB11_2 Depth=1
	.loc	2 252 15 is_stmt 1              ; bdf_tga.c:252:15
	ldr	x8, [sp, #24]
	ldrb	w9, [x8, #1]
	.loc	2 252 12 is_stmt 0              ; bdf_tga.c:252:12
	ldr	x8, [sp, #24]
	add	x8, x8, w9, sxtw
	str	x8, [sp, #24]
Ltmp64:
	.loc	2 244 5 is_stmt 1               ; bdf_tga.c:244:5
	b	LBB11_2
Ltmp65:
LBB11_7:
	.loc	2 254 3                         ; bdf_tga.c:254:3
	b	LBB11_18
Ltmp66:
LBB11_8:
	.loc	2 0 0 is_stmt 0                 ; bdf_tga.c:0:0
	adrp	x8, _unicode_start_pos@PAGE
	.loc	2 259 13 is_stmt 1              ; bdf_tga.c:259:13
	ldr	w8, [x8, _unicode_start_pos@PAGEOFF]
	mov	x9, x8
	.loc	2 259 10 is_stmt 0              ; bdf_tga.c:259:10
	ldr	x8, [sp, #24]
	add	x8, x8, x9
	str	x8, [sp, #24]
	.loc	2 260 28 is_stmt 1              ; bdf_tga.c:260:28
	ldr	x8, [sp, #24]
	.loc	2 260 26 is_stmt 0              ; bdf_tga.c:260:26
	str	x8, [sp, #8]
LBB11_9:                                ; =>This Inner Loop Header: Depth=1
Ltmp67:
	.loc	2 266 17 is_stmt 1              ; bdf_tga.c:266:17
	ldr	x8, [sp, #8]
	ldrb	w9, [x8]
	.loc	2 266 45 is_stmt 0              ; bdf_tga.c:266:45
	ldr	x8, [sp, #8]
	ldrb	w8, [x8, #1]
	.loc	2 266 44                        ; bdf_tga.c:266:44
	orr	w9, w8, w9, lsl #8
	.loc	2 266 12                        ; bdf_tga.c:266:12
	ldr	x8, [sp, #24]
	add	x8, x8, w9, sxtw
	str	x8, [sp, #24]
	.loc	2 267 27 is_stmt 1              ; bdf_tga.c:267:27
	ldr	x8, [sp, #8]
	add	x8, x8, #2                      ; =2
	str	x8, [sp, #8]
	.loc	2 268 12                        ; bdf_tga.c:268:12
	ldr	x8, [sp, #8]
	ldrb	w9, [x8]
	.loc	2 268 40 is_stmt 0              ; bdf_tga.c:268:40
	ldr	x8, [sp, #8]
	ldrb	w8, [x8, #1]
	.loc	2 268 39                        ; bdf_tga.c:268:39
	orr	w8, w8, w9, lsl #8
	.loc	2 268 9                         ; bdf_tga.c:268:9
	strh	w8, [sp, #22]
	.loc	2 269 27 is_stmt 1              ; bdf_tga.c:269:27
	ldr	x8, [sp, #8]
	add	x8, x8, #2                      ; =2
	str	x8, [sp, #8]
Ltmp68:
; %bb.10:                               ;   in Loop: Header=BB11_9 Depth=1
	.loc	2 270 14                        ; bdf_tga.c:270:14
	ldrh	w8, [sp, #22]
	.loc	2 270 18 is_stmt 0              ; bdf_tga.c:270:18
	ldrh	w9, [sp, #38]
Ltmp69:
	.loc	2 270 5                         ; bdf_tga.c:270:5
	subs	w8, w8, w9
	b.lt	LBB11_9
Ltmp70:
; %bb.11:
LBB11_12:                               ; =>This Inner Loop Header: Depth=1
	.loc	2 275 13 is_stmt 1              ; bdf_tga.c:275:13
	ldr	x8, [sp, #24]
	ldrb	w9, [x8]
	.loc	2 275 25 is_stmt 0              ; bdf_tga.c:275:25
	ldr	x8, [sp, #24]
	ldrb	w8, [x8, #1]
	.loc	2 275 24                        ; bdf_tga.c:275:24
	orr	w8, w8, w9, lsl #8
	.loc	2 275 9                         ; bdf_tga.c:275:9
	strh	w8, [sp, #22]
Ltmp71:
	.loc	2 276 12 is_stmt 1              ; bdf_tga.c:276:12
	ldrh	w8, [sp, #22]
Ltmp72:
	.loc	2 276 12 is_stmt 0              ; bdf_tga.c:276:12
	cbnz	w8, LBB11_14
; %bb.13:
Ltmp73:
	.loc	2 277 2 is_stmt 1               ; bdf_tga.c:277:2
	b	LBB11_17
Ltmp74:
LBB11_14:                               ;   in Loop: Header=BB11_12 Depth=1
	.loc	2 278 12                        ; bdf_tga.c:278:12
	ldrh	w8, [sp, #22]
	.loc	2 278 17 is_stmt 0              ; bdf_tga.c:278:17
	ldrh	w9, [sp, #38]
Ltmp75:
	.loc	2 278 12                        ; bdf_tga.c:278:12
	subs	w8, w8, w9
	b.ne	LBB11_16
; %bb.15:
Ltmp76:
	.loc	2 280 9 is_stmt 1               ; bdf_tga.c:280:9
	ldr	x8, [sp, #24]
	.loc	2 280 2 is_stmt 0               ; bdf_tga.c:280:2
	str	x8, [sp, #40]
	b	LBB11_19
Ltmp77:
LBB11_16:                               ;   in Loop: Header=BB11_12 Depth=1
	.loc	2 282 15 is_stmt 1              ; bdf_tga.c:282:15
	ldr	x8, [sp, #24]
	ldrb	w9, [x8, #2]
	.loc	2 282 12 is_stmt 0              ; bdf_tga.c:282:12
	ldr	x8, [sp, #24]
	add	x8, x8, w9, sxtw
	str	x8, [sp, #24]
Ltmp78:
	.loc	2 273 5 is_stmt 1               ; bdf_tga.c:273:5
	b	LBB11_12
Ltmp79:
LBB11_17:
LBB11_18:
	.loc	2 285 3                         ; bdf_tga.c:285:3
	str	xzr, [sp, #40]
LBB11_19:
	.loc	2 286 1                         ; bdf_tga.c:286:1
	ldr	x0, [sp, #40]
	add	sp, sp, #48                     ; =48
	ret
Ltmp80:
Lfunc_end11:
	.cfi_endproc
                                        ; -- End function
	.globl	_tga_fd_inc                     ; -- Begin function tga_fd_inc
	.p2align	2
_tga_fd_inc:                            ; @tga_fd_inc
Lfunc_begin12:
	.loc	2 317 0                         ; bdf_tga.c:317:0
	.cfi_startproc
; %bb.0:
	sub	sp, sp, #16                     ; =16
	.cfi_def_cfa_offset 16
	str	x0, [sp, #8]
Ltmp82:
	.loc	2 318 16 prologue_end           ; bdf_tga.c:318:16
	ldr	x8, [sp, #8]
	.loc	2 318 19 is_stmt 0              ; bdf_tga.c:318:19
	ldr	w8, [x8, #12]
	.loc	2 318 12                        ; bdf_tga.c:318:12
	str	w8, [sp, #4]
	.loc	2 319 4 is_stmt 1               ; bdf_tga.c:319:4
	ldr	w8, [sp, #4]
	add	w8, w8, #1                      ; =1
	str	w8, [sp, #4]
Ltmp83:
	.loc	2 320 8                         ; bdf_tga.c:320:8
	ldr	w8, [sp, #4]
	.loc	2 320 13 is_stmt 0              ; bdf_tga.c:320:13
	ldr	x9, [sp, #8]
	.loc	2 320 16                        ; bdf_tga.c:320:16
	ldr	w9, [x9, #20]
Ltmp84:
	.loc	2 320 8                         ; bdf_tga.c:320:8
	subs	w8, w8, w9
	b.ne	LBB12_2
; %bb.1:
Ltmp85:
	.loc	2 322 7 is_stmt 1               ; bdf_tga.c:322:7
	str	wzr, [sp, #4]
	.loc	2 323 5                         ; bdf_tga.c:323:5
	ldr	x9, [sp, #8]
	.loc	2 323 9 is_stmt 0               ; bdf_tga.c:323:9
	ldr	w8, [x9, #16]
	add	w8, w8, #1                      ; =1
	str	w8, [x9, #16]
Ltmp86:
LBB12_2:
	.loc	2 325 10 is_stmt 1              ; bdf_tga.c:325:10
	ldr	w8, [sp, #4]
	.loc	2 325 3 is_stmt 0               ; bdf_tga.c:325:3
	ldr	x9, [sp, #8]
	.loc	2 325 8                         ; bdf_tga.c:325:8
	str	w8, [x9, #12]
	.loc	2 326 1 is_stmt 1               ; bdf_tga.c:326:1
	add	sp, sp, #16                     ; =16
	ret
Ltmp87:
Lfunc_end12:
	.cfi_endproc
                                        ; -- End function
	.globl	_tga_fd_get_unsigned_bits       ; -- Begin function tga_fd_get_unsigned_bits
	.p2align	2
_tga_fd_get_unsigned_bits:              ; @tga_fd_get_unsigned_bits
Lfunc_begin13:
	.loc	2 330 0                         ; bdf_tga.c:330:0
	.cfi_startproc
; %bb.0:
	sub	sp, sp, #32                     ; =32
	.cfi_def_cfa_offset 32
	str	x0, [sp, #24]
	str	w1, [sp, #20]
Ltmp89:
	.loc	2 332 22 prologue_end           ; bdf_tga.c:332:22
	ldr	x8, [sp, #24]
	.loc	2 332 25 is_stmt 0              ; bdf_tga.c:332:25
	ldr	w8, [x8, #40]
	.loc	2 332 12                        ; bdf_tga.c:332:12
	str	w8, [sp, #12]
	.loc	2 334 11 is_stmt 1              ; bdf_tga.c:334:11
	ldr	x8, [sp, #24]
	.loc	2 334 14 is_stmt 0              ; bdf_tga.c:334:14
	ldr	x8, [x8, #32]
	.loc	2 334 9                         ; bdf_tga.c:334:9
	ldrb	w8, [x8]
	.loc	2 334 7                         ; bdf_tga.c:334:7
	str	w8, [sp, #16]
	.loc	2 336 11 is_stmt 1              ; bdf_tga.c:336:11
	ldr	w9, [sp, #12]
	.loc	2 336 7 is_stmt 0               ; bdf_tga.c:336:7
	ldr	w8, [sp, #16]
	lsr	w8, w8, w9
	str	w8, [sp, #16]
Ltmp90:
	.loc	2 337 8 is_stmt 1               ; bdf_tga.c:337:8
	ldr	w8, [sp, #12]
	.loc	2 337 18 is_stmt 0              ; bdf_tga.c:337:18
	ldr	w9, [sp, #20]
	.loc	2 337 16                        ; bdf_tga.c:337:16
	add	w8, w8, w9
Ltmp91:
	.loc	2 337 8                         ; bdf_tga.c:337:8
	subs	w8, w8, #8                      ; =8
	b.lo	LBB13_2
; %bb.1:
Ltmp92:
	.loc	2 339 5 is_stmt 1               ; bdf_tga.c:339:5
	ldr	x9, [sp, #24]
	.loc	2 339 18 is_stmt 0              ; bdf_tga.c:339:18
	ldr	x8, [x9, #32]
	add	x8, x8, #1                      ; =1
	str	x8, [x9, #32]
	.loc	2 340 14 is_stmt 1              ; bdf_tga.c:340:14
	ldr	x8, [sp, #24]
	.loc	2 340 17 is_stmt 0              ; bdf_tga.c:340:17
	ldr	x8, [x8, #32]
	.loc	2 340 12                        ; bdf_tga.c:340:12
	ldrb	w8, [x8]
	.loc	2 340 35                        ; bdf_tga.c:340:35
	ldr	w10, [sp, #12]
	mov	w9, #8
	.loc	2 340 34                        ; bdf_tga.c:340:34
	subs	w9, w9, w10
	.loc	2 340 29                        ; bdf_tga.c:340:29
	lsl	w9, w8, w9
	.loc	2 340 9                         ; bdf_tga.c:340:9
	ldr	w8, [sp, #16]
	orr	w8, w8, w9
	str	w8, [sp, #16]
	.loc	2 341 13 is_stmt 1              ; bdf_tga.c:341:13
	ldr	w8, [sp, #12]
	subs	w8, w8, #8                      ; =8
	str	w8, [sp, #12]
Ltmp93:
LBB13_2:
	.loc	2 343 15                        ; bdf_tga.c:343:15
	ldr	w9, [sp, #20]
	mov	w8, #1
	.loc	2 343 13 is_stmt 0              ; bdf_tga.c:343:13
	lsl	w8, w8, w9
	.loc	2 343 19                        ; bdf_tga.c:343:19
	subs	w9, w8, #1                      ; =1
	.loc	2 343 7                         ; bdf_tga.c:343:7
	ldr	w8, [sp, #16]
	and	w8, w8, w9
	str	w8, [sp, #16]
	.loc	2 344 14 is_stmt 1              ; bdf_tga.c:344:14
	ldr	w9, [sp, #20]
	.loc	2 344 11 is_stmt 0              ; bdf_tga.c:344:11
	ldr	w8, [sp, #12]
	add	w8, w8, w9
	str	w8, [sp, #12]
	.loc	2 346 23 is_stmt 1              ; bdf_tga.c:346:23
	ldr	w8, [sp, #12]
	.loc	2 346 3 is_stmt 0               ; bdf_tga.c:346:3
	ldr	x9, [sp, #24]
	.loc	2 346 21                        ; bdf_tga.c:346:21
	str	w8, [x9, #40]
	.loc	2 347 10 is_stmt 1              ; bdf_tga.c:347:10
	ldr	w0, [sp, #16]
	.loc	2 347 3 is_stmt 0               ; bdf_tga.c:347:3
	add	sp, sp, #32                     ; =32
	ret
Ltmp94:
Lfunc_end13:
	.cfi_endproc
                                        ; -- End function
	.globl	_tga_fd_get_signed_bits         ; -- Begin function tga_fd_get_signed_bits
	.p2align	2
_tga_fd_get_signed_bits:                ; @tga_fd_get_signed_bits
Lfunc_begin14:
	.loc	2 365 0 is_stmt 1               ; bdf_tga.c:365:0
	.cfi_startproc
; %bb.0:
	sub	sp, sp, #32                     ; =32
	stp	x29, x30, [sp, #16]             ; 16-byte Folded Spill
	add	x29, sp, #16                    ; =16
	.cfi_def_cfa w29, 16
	.cfi_offset w30, -8
	.cfi_offset w29, -16
	str	x0, [sp, #8]
	str	w1, [sp, #4]
Ltmp95:
	.loc	2 366 40 prologue_end           ; bdf_tga.c:366:40
	ldr	x0, [sp, #8]
	.loc	2 366 43 is_stmt 0              ; bdf_tga.c:366:43
	ldr	w1, [sp, #4]
	.loc	2 366 15                        ; bdf_tga.c:366:15
	bl	_tga_fd_get_unsigned_bits
	.loc	2 366 55                        ; bdf_tga.c:366:55
	ldr	w9, [sp, #4]
	mov	w8, #1
	.loc	2 366 53                        ; bdf_tga.c:366:53
	lsl	w8, w8, w9
	.loc	2 366 48                        ; bdf_tga.c:366:48
	subs	w0, w0, w8, asr #1
	.loc	2 366 3                         ; bdf_tga.c:366:3
	ldp	x29, x30, [sp, #16]             ; 16-byte Folded Reload
	add	sp, sp, #32                     ; =32
	ret
Ltmp96:
Lfunc_end14:
	.cfi_endproc
                                        ; -- End function
	.globl	_tga_fd_draw_fg_pixel           ; -- Begin function tga_fd_draw_fg_pixel
	.p2align	2
_tga_fd_draw_fg_pixel:                  ; @tga_fd_draw_fg_pixel
Lfunc_begin15:
	.loc	2 371 0 is_stmt 1               ; bdf_tga.c:371:0
	.cfi_startproc
; %bb.0:
	sub	sp, sp, #32                     ; =32
	stp	x29, x30, [sp, #16]             ; 16-byte Folded Spill
	add	x29, sp, #16                    ; =16
	.cfi_def_cfa w29, 16
	.cfi_offset w30, -8
	.cfi_offset w29, -16
	str	x0, [sp, #8]
	str	w1, [sp, #4]
LBB15_1:                                ; =>This Inner Loop Header: Depth=1
Ltmp97:
	.loc	2 374 10 prologue_end           ; bdf_tga.c:374:10
	ldr	w8, [sp, #4]
	.loc	2 374 3 is_stmt 0               ; bdf_tga.c:374:3
	subs	w8, w8, #0                      ; =0
	b.ls	LBB15_3
; %bb.2:                                ;   in Loop: Header=BB15_1 Depth=1
Ltmp98:
	.loc	2 376 8 is_stmt 1               ; bdf_tga.c:376:8
	ldr	w8, [sp, #4]
	subs	w8, w8, #1                      ; =1
	str	w8, [sp, #4]
	.loc	2 377 19                        ; bdf_tga.c:377:19
	ldr	x8, [sp, #8]
	.loc	2 377 22 is_stmt 0              ; bdf_tga.c:377:22
	ldr	w8, [x8]
	.loc	2 377 31                        ; bdf_tga.c:377:31
	ldr	x9, [sp, #8]
	.loc	2 377 34                        ; bdf_tga.c:377:34
	ldr	w9, [x9, #12]
	.loc	2 377 30                        ; bdf_tga.c:377:30
	add	w8, w8, w9
	.loc	2 377 36                        ; bdf_tga.c:377:36
	ldr	w9, [sp, #4]
	.loc	2 377 35                        ; bdf_tga.c:377:35
	add	w9, w8, w9
	.loc	2 377 41                        ; bdf_tga.c:377:41
	ldr	x8, [sp, #8]
	.loc	2 377 44                        ; bdf_tga.c:377:44
	ldr	w8, [x8, #4]
	.loc	2 377 53                        ; bdf_tga.c:377:53
	ldr	x10, [sp, #8]
	.loc	2 377 56                        ; bdf_tga.c:377:56
	ldr	w10, [x10, #16]
	.loc	2 377 52                        ; bdf_tga.c:377:52
	add	w8, w8, w10
	.loc	2 377 5                         ; bdf_tga.c:377:5
	and	w0, w9, #0xffff
	and	w1, w8, #0xffff
	mov	w4, #0
	mov	x2, x4
	mov	x3, x4
	bl	_tga_set_pixel
Ltmp99:
	.loc	2 374 3 is_stmt 1               ; bdf_tga.c:374:3
	b	LBB15_1
LBB15_3:
	.loc	2 379 1                         ; bdf_tga.c:379:1
	ldp	x29, x30, [sp, #16]             ; 16-byte Folded Reload
	add	sp, sp, #32                     ; =32
	ret
Ltmp100:
Lfunc_end15:
	.cfi_endproc
                                        ; -- End function
	.globl	_tga_fd_draw_bg_pixel           ; -- Begin function tga_fd_draw_bg_pixel
	.p2align	2
_tga_fd_draw_bg_pixel:                  ; @tga_fd_draw_bg_pixel
Lfunc_begin16:
	.loc	2 382 0                         ; bdf_tga.c:382:0
	.cfi_startproc
; %bb.0:
	sub	sp, sp, #32                     ; =32
	stp	x29, x30, [sp, #16]             ; 16-byte Folded Spill
	add	x29, sp, #16                    ; =16
	.cfi_def_cfa w29, 16
	.cfi_offset w30, -8
	.cfi_offset w29, -16
	str	x0, [sp, #8]
	str	w1, [sp, #4]
LBB16_1:                                ; =>This Inner Loop Header: Depth=1
Ltmp101:
	.loc	2 385 10 prologue_end           ; bdf_tga.c:385:10
	ldr	w8, [sp, #4]
	.loc	2 385 3 is_stmt 0               ; bdf_tga.c:385:3
	subs	w8, w8, #0                      ; =0
	b.ls	LBB16_5
; %bb.2:                                ;   in Loop: Header=BB16_1 Depth=1
Ltmp102:
	.loc	2 387 8 is_stmt 1               ; bdf_tga.c:387:8
	ldr	w8, [sp, #4]
	subs	w8, w8, #1                      ; =1
	str	w8, [sp, #4]
Ltmp103:
	.loc	2 388 10                        ; bdf_tga.c:388:10
	ldr	x8, [sp, #8]
	.loc	2 388 13 is_stmt 0              ; bdf_tga.c:388:13
	ldr	w8, [x8, #8]
Ltmp104:
	.loc	2 388 10                        ; bdf_tga.c:388:10
	cbnz	w8, LBB16_4
; %bb.3:                                ;   in Loop: Header=BB16_1 Depth=1
Ltmp105:
	.loc	2 389 21 is_stmt 1              ; bdf_tga.c:389:21
	ldr	x8, [sp, #8]
	.loc	2 389 24 is_stmt 0              ; bdf_tga.c:389:24
	ldr	w8, [x8]
	.loc	2 389 33                        ; bdf_tga.c:389:33
	ldr	x9, [sp, #8]
	.loc	2 389 36                        ; bdf_tga.c:389:36
	ldr	w9, [x9, #12]
	.loc	2 389 32                        ; bdf_tga.c:389:32
	add	w8, w8, w9
	.loc	2 389 38                        ; bdf_tga.c:389:38
	ldr	w9, [sp, #4]
	.loc	2 389 37                        ; bdf_tga.c:389:37
	add	w9, w8, w9
	.loc	2 389 43                        ; bdf_tga.c:389:43
	ldr	x8, [sp, #8]
	.loc	2 389 46                        ; bdf_tga.c:389:46
	ldr	w8, [x8, #4]
	.loc	2 389 55                        ; bdf_tga.c:389:55
	ldr	x10, [sp, #8]
	.loc	2 389 58                        ; bdf_tga.c:389:58
	ldr	w10, [x10, #16]
	.loc	2 389 54                        ; bdf_tga.c:389:54
	add	w8, w8, w10
	.loc	2 389 7                         ; bdf_tga.c:389:7
	and	w0, w9, #0xffff
	and	w1, w8, #0xffff
	mov	w4, #232
	mov	x2, x4
	mov	x3, x4
	bl	_tga_set_pixel
Ltmp106:
LBB16_4:                                ;   in Loop: Header=BB16_1 Depth=1
	.loc	2 385 3 is_stmt 1               ; bdf_tga.c:385:3
	b	LBB16_1
LBB16_5:
	.loc	2 391 1                         ; bdf_tga.c:391:1
	ldp	x29, x30, [sp, #16]             ; 16-byte Folded Reload
	add	sp, sp, #32                     ; =32
	ret
Ltmp107:
Lfunc_end16:
	.cfi_endproc
                                        ; -- End function
	.globl	_tga_draw_hline                 ; -- Begin function tga_draw_hline
	.p2align	2
_tga_draw_hline:                        ; @tga_draw_hline
Lfunc_begin17:
	.loc	2 394 0                         ; bdf_tga.c:394:0
	.cfi_startproc
; %bb.0:
	sub	sp, sp, #32                     ; =32
	stp	x29, x30, [sp, #16]             ; 16-byte Folded Spill
	add	x29, sp, #16                    ; =16
	.cfi_def_cfa w29, 16
	.cfi_offset w30, -8
	.cfi_offset w29, -16
	stur	w0, [x29, #-4]
	str	w1, [sp, #8]
	str	w2, [sp, #4]
	str	w3, [sp]
LBB17_1:                                ; =>This Inner Loop Header: Depth=1
Ltmp108:
	.loc	2 395 10 prologue_end           ; bdf_tga.c:395:10
	ldr	w8, [sp, #4]
	.loc	2 395 3 is_stmt 0               ; bdf_tga.c:395:3
	subs	w8, w8, #0                      ; =0
	b.ls	LBB17_6
; %bb.2:                                ;   in Loop: Header=BB17_1 Depth=1
Ltmp109:
	.loc	2 397 8 is_stmt 1               ; bdf_tga.c:397:8
	ldr	w8, [sp, #4]
	subs	w8, w8, #1                      ; =1
	str	w8, [sp, #4]
Ltmp110:
	.loc	2 398 10                        ; bdf_tga.c:398:10
	ldr	w8, [sp]
Ltmp111:
	.loc	2 398 10 is_stmt 0              ; bdf_tga.c:398:10
	cbnz	w8, LBB17_4
; %bb.3:                                ;   in Loop: Header=BB17_1 Depth=1
Ltmp112:
	.loc	2 399 21 is_stmt 1              ; bdf_tga.c:399:21
	ldur	w8, [x29, #-4]
	.loc	2 399 23 is_stmt 0              ; bdf_tga.c:399:23
	ldr	w9, [sp, #4]
	.loc	2 399 22                        ; bdf_tga.c:399:22
	add	w9, w8, w9
	.loc	2 399 28                        ; bdf_tga.c:399:28
	ldr	w8, [sp, #8]
	.loc	2 399 7                         ; bdf_tga.c:399:7
	and	w0, w9, #0xffff
	and	w1, w8, #0xffff
	mov	w4, #232
	mov	x2, x4
	mov	x3, x4
	bl	_tga_set_pixel
	b	LBB17_5
LBB17_4:                                ;   in Loop: Header=BB17_1 Depth=1
	.loc	2 401 21 is_stmt 1              ; bdf_tga.c:401:21
	ldur	w8, [x29, #-4]
	.loc	2 401 23 is_stmt 0              ; bdf_tga.c:401:23
	ldr	w9, [sp, #4]
	.loc	2 401 22                        ; bdf_tga.c:401:22
	add	w9, w8, w9
	.loc	2 401 28                        ; bdf_tga.c:401:28
	ldr	w8, [sp, #8]
	.loc	2 401 7                         ; bdf_tga.c:401:7
	and	w0, w9, #0xffff
	and	w1, w8, #0xffff
	mov	w2, #255
	mov	w4, #0
	mov	x3, x4
	bl	_tga_set_pixel
Ltmp113:
LBB17_5:                                ;   in Loop: Header=BB17_1 Depth=1
	.loc	2 395 3 is_stmt 1               ; bdf_tga.c:395:3
	b	LBB17_1
LBB17_6:
	.loc	2 403 1                         ; bdf_tga.c:403:1
	ldp	x29, x30, [sp, #16]             ; 16-byte Folded Reload
	add	sp, sp, #32                     ; =32
	ret
Ltmp114:
Lfunc_end17:
	.cfi_endproc
                                        ; -- End function
	.globl	_tga_fd_draw_pixel              ; -- Begin function tga_fd_draw_pixel
	.p2align	2
_tga_fd_draw_pixel:                     ; @tga_fd_draw_pixel
Lfunc_begin18:
	.loc	2 407 0                         ; bdf_tga.c:407:0
	.cfi_startproc
; %bb.0:
	sub	sp, sp, #32                     ; =32
	stp	x29, x30, [sp, #16]             ; 16-byte Folded Spill
	add	x29, sp, #16                    ; =16
	.cfi_def_cfa w29, 16
	.cfi_offset w30, -8
	.cfi_offset w29, -16
	str	x0, [sp, #8]
	str	w1, [sp, #4]
	str	w2, [sp]
Ltmp115:
	.loc	2 408 8 prologue_end            ; bdf_tga.c:408:8
	ldr	w8, [sp]
Ltmp116:
	.loc	2 408 8 is_stmt 0               ; bdf_tga.c:408:8
	cbz	w8, LBB18_2
; %bb.1:
Ltmp117:
	.loc	2 410 26 is_stmt 1              ; bdf_tga.c:410:26
	ldr	x0, [sp, #8]
	.loc	2 410 29 is_stmt 0              ; bdf_tga.c:410:29
	ldr	w1, [sp, #4]
	.loc	2 410 5                         ; bdf_tga.c:410:5
	bl	_tga_fd_draw_fg_pixel
	.loc	2 411 3 is_stmt 1               ; bdf_tga.c:411:3
	b	LBB18_3
Ltmp118:
LBB18_2:
	.loc	2 414 26                        ; bdf_tga.c:414:26
	ldr	x0, [sp, #8]
	.loc	2 414 29 is_stmt 0              ; bdf_tga.c:414:29
	ldr	w1, [sp, #4]
	.loc	2 414 5                         ; bdf_tga.c:414:5
	bl	_tga_fd_draw_bg_pixel
Ltmp119:
LBB18_3:
	.loc	2 416 1 is_stmt 1               ; bdf_tga.c:416:1
	ldp	x29, x30, [sp, #16]             ; 16-byte Folded Reload
	add	sp, sp, #32                     ; =32
	ret
Ltmp120:
Lfunc_end18:
	.cfi_endproc
                                        ; -- End function
	.globl	_tga_fd_decode_len              ; -- Begin function tga_fd_decode_len
	.p2align	2
_tga_fd_decode_len:                     ; @tga_fd_decode_len
Lfunc_begin19:
	.loc	2 419 0                         ; bdf_tga.c:419:0
	.cfi_startproc
; %bb.0:
	sub	sp, sp, #48                     ; =48
	stp	x29, x30, [sp, #32]             ; 16-byte Folded Spill
	add	x29, sp, #32                    ; =32
	.cfi_def_cfa w29, 16
	.cfi_offset w30, -8
	.cfi_offset w29, -16
	stur	x0, [x29, #-8]
	stur	w1, [x29, #-12]
	str	w2, [sp, #16]
Ltmp121:
	.loc	2 421 9 prologue_end            ; bdf_tga.c:421:9
	ldur	w8, [x29, #-12]
	.loc	2 421 7 is_stmt 0               ; bdf_tga.c:421:7
	str	w8, [sp, #12]
LBB19_1:                                ; =>This Inner Loop Header: Depth=1
Ltmp122:
	.loc	2 424 11 is_stmt 1              ; bdf_tga.c:424:11
	ldur	x8, [x29, #-8]
	.loc	2 424 14 is_stmt 0              ; bdf_tga.c:424:14
	ldr	w8, [x8, #20]
	.loc	2 424 9                         ; bdf_tga.c:424:9
	str	w8, [sp, #8]
	.loc	2 425 12 is_stmt 1              ; bdf_tga.c:425:12
	ldur	x8, [x29, #-8]
	.loc	2 425 15 is_stmt 0              ; bdf_tga.c:425:15
	ldr	w9, [x8, #12]
	.loc	2 425 9                         ; bdf_tga.c:425:9
	ldr	w8, [sp, #8]
	subs	w8, w8, w9
	str	w8, [sp, #8]
Ltmp123:
	.loc	2 426 10 is_stmt 1              ; bdf_tga.c:426:10
	ldr	w8, [sp, #12]
	.loc	2 426 16 is_stmt 0              ; bdf_tga.c:426:16
	ldr	w9, [sp, #8]
Ltmp124:
	.loc	2 426 10                        ; bdf_tga.c:426:10
	subs	w8, w8, w9
	b.hs	LBB19_3
; %bb.2:
Ltmp125:
	.loc	2 427 7 is_stmt 1               ; bdf_tga.c:427:7
	b	LBB19_4
Ltmp126:
LBB19_3:                                ;   in Loop: Header=BB19_1 Depth=1
	.loc	2 428 23                        ; bdf_tga.c:428:23
	ldur	x0, [x29, #-8]
	.loc	2 428 25 is_stmt 0              ; bdf_tga.c:428:25
	ldr	w1, [sp, #8]
	.loc	2 428 30                        ; bdf_tga.c:428:30
	ldr	w2, [sp, #16]
	.loc	2 428 5                         ; bdf_tga.c:428:5
	bl	_tga_fd_draw_pixel
	.loc	2 429 12 is_stmt 1              ; bdf_tga.c:429:12
	ldr	w9, [sp, #8]
	.loc	2 429 9 is_stmt 0               ; bdf_tga.c:429:9
	ldr	w8, [sp, #12]
	subs	w8, w8, w9
	str	w8, [sp, #12]
	.loc	2 430 5 is_stmt 1               ; bdf_tga.c:430:5
	ldur	x8, [x29, #-8]
	.loc	2 430 10 is_stmt 0              ; bdf_tga.c:430:10
	str	wzr, [x8, #12]
	.loc	2 431 5 is_stmt 1               ; bdf_tga.c:431:5
	ldur	x9, [x29, #-8]
	.loc	2 431 9 is_stmt 0               ; bdf_tga.c:431:9
	ldr	w8, [x9, #16]
	add	w8, w8, #1                      ; =1
	str	w8, [x9, #16]
Ltmp127:
	.loc	2 422 3 is_stmt 1               ; bdf_tga.c:422:3
	b	LBB19_1
Ltmp128:
LBB19_4:
	.loc	2 433 21                        ; bdf_tga.c:433:21
	ldur	x0, [x29, #-8]
	.loc	2 433 24 is_stmt 0              ; bdf_tga.c:433:24
	ldr	w1, [sp, #12]
	.loc	2 433 29                        ; bdf_tga.c:433:29
	ldr	w2, [sp, #16]
	.loc	2 433 3                         ; bdf_tga.c:433:3
	bl	_tga_fd_draw_pixel
	.loc	2 434 11 is_stmt 1              ; bdf_tga.c:434:11
	ldr	w10, [sp, #12]
	.loc	2 434 3 is_stmt 0               ; bdf_tga.c:434:3
	ldur	x9, [x29, #-8]
	.loc	2 434 8                         ; bdf_tga.c:434:8
	ldr	w8, [x9, #12]
	add	w8, w8, w10
	str	w8, [x9, #12]
	.loc	2 435 1 is_stmt 1               ; bdf_tga.c:435:1
	ldp	x29, x30, [sp, #32]             ; 16-byte Folded Reload
	add	sp, sp, #48                     ; =48
	ret
Ltmp129:
Lfunc_end19:
	.cfi_endproc
                                        ; -- End function
	.globl	_tga_fd_decode                  ; -- Begin function tga_fd_decode
	.p2align	2
_tga_fd_decode:                         ; @tga_fd_decode
Lfunc_begin20:
	.loc	2 438 0                         ; bdf_tga.c:438:0
	.cfi_startproc
; %bb.0:
	sub	sp, sp, #64                     ; =64
	stp	x29, x30, [sp, #48]             ; 16-byte Folded Spill
	add	x29, sp, #48                    ; =48
	.cfi_def_cfa w29, 16
	.cfi_offset w30, -8
	.cfi_offset w29, -16
	stur	x0, [x29, #-8]
	stur	x1, [x29, #-16]
	stur	w2, [x29, #-20]
Ltmp130:
	.loc	2 442 12 prologue_end           ; bdf_tga.c:442:12
	str	wzr, [sp, #8]
	.loc	2 444 19                        ; bdf_tga.c:444:19
	ldur	x8, [x29, #-16]
	.loc	2 444 3 is_stmt 0               ; bdf_tga.c:444:3
	ldur	x9, [x29, #-8]
	.loc	2 444 17                        ; bdf_tga.c:444:17
	str	x8, [x9, #32]
	.loc	2 445 3 is_stmt 1               ; bdf_tga.c:445:3
	ldur	x8, [x29, #-8]
	.loc	2 445 21 is_stmt 0              ; bdf_tga.c:445:21
	str	wzr, [x8, #40]
	.loc	2 447 3 is_stmt 1               ; bdf_tga.c:447:3
	ldur	x9, [x29, #-8]
	.loc	2 447 17 is_stmt 0              ; bdf_tga.c:447:17
	ldr	x8, [x9, #32]
	add	x8, x8, #1                      ; =1
	str	x8, [x9, #32]
	.loc	2 448 3 is_stmt 1               ; bdf_tga.c:448:3
	ldur	x9, [x29, #-8]
	.loc	2 448 17 is_stmt 0              ; bdf_tga.c:448:17
	ldr	x8, [x9, #32]
	add	x8, x8, #1                      ; =1
	str	x8, [x9, #32]
Ltmp131:
	.loc	2 449 8 is_stmt 1               ; bdf_tga.c:449:8
	ldur	w8, [x29, #-20]
Ltmp132:
	.loc	2 449 8 is_stmt 0               ; bdf_tga.c:449:8
	cbz	w8, LBB20_2
; %bb.1:
Ltmp133:
	.loc	2 450 5 is_stmt 1               ; bdf_tga.c:450:5
	ldur	x9, [x29, #-8]
	.loc	2 450 19 is_stmt 0              ; bdf_tga.c:450:19
	ldr	x8, [x9, #32]
	add	x8, x8, #1                      ; =1
	str	x8, [x9, #32]
Ltmp134:
LBB20_2:
	.loc	2 453 45 is_stmt 1              ; bdf_tga.c:453:45
	ldur	x0, [x29, #-8]
	.loc	2 0 0 is_stmt 0                 ; bdf_tga.c:0:0
	adrp	x8, _bits_per_char_width@PAGE
	.loc	2 453 48                        ; bdf_tga.c:453:48
	ldr	w1, [x8, _bits_per_char_width@PAGEOFF]
	.loc	2 453 20                        ; bdf_tga.c:453:20
	bl	_tga_fd_get_unsigned_bits
	.loc	2 453 3                         ; bdf_tga.c:453:3
	ldur	x8, [x29, #-8]
	.loc	2 453 18                        ; bdf_tga.c:453:18
	str	w0, [x8, #20]
	.loc	2 454 46 is_stmt 1              ; bdf_tga.c:454:46
	ldur	x0, [x29, #-8]
	.loc	2 0 0 is_stmt 0                 ; bdf_tga.c:0:0
	adrp	x8, _bits_per_char_height@PAGE
	.loc	2 454 49                        ; bdf_tga.c:454:49
	ldr	w1, [x8, _bits_per_char_height@PAGEOFF]
	.loc	2 454 21                        ; bdf_tga.c:454:21
	bl	_tga_fd_get_unsigned_bits
	.loc	2 454 3                         ; bdf_tga.c:454:3
	ldur	x8, [x29, #-8]
	.loc	2 454 19                        ; bdf_tga.c:454:19
	str	w0, [x8, #24]
	.loc	2 455 30 is_stmt 1              ; bdf_tga.c:455:30
	ldur	x0, [x29, #-8]
	.loc	2 0 0 is_stmt 0                 ; bdf_tga.c:0:0
	adrp	x8, _bits_per_char_x@PAGE
	.loc	2 455 33                        ; bdf_tga.c:455:33
	ldr	w1, [x8, _bits_per_char_x@PAGEOFF]
	.loc	2 455 7                         ; bdf_tga.c:455:7
	bl	_tga_fd_get_signed_bits
	.loc	2 455 5                         ; bdf_tga.c:455:5
	str	w0, [sp, #16]
	.loc	2 456 30 is_stmt 1              ; bdf_tga.c:456:30
	ldur	x0, [x29, #-8]
	.loc	2 0 0 is_stmt 0                 ; bdf_tga.c:0:0
	adrp	x8, _bits_per_char_y@PAGE
	.loc	2 456 33                        ; bdf_tga.c:456:33
	ldr	w1, [x8, _bits_per_char_y@PAGEOFF]
	.loc	2 456 7                         ; bdf_tga.c:456:7
	bl	_tga_fd_get_signed_bits
	.loc	2 456 5                         ; bdf_tga.c:456:5
	str	w0, [sp, #12]
	.loc	2 457 30 is_stmt 1              ; bdf_tga.c:457:30
	ldur	x0, [x29, #-8]
	.loc	2 0 0 is_stmt 0                 ; bdf_tga.c:0:0
	adrp	x8, _bits_per_delta_x@PAGE
	.loc	2 457 33                        ; bdf_tga.c:457:33
	ldr	w1, [x8, _bits_per_delta_x@PAGEOFF]
	.loc	2 457 7                         ; bdf_tga.c:457:7
	bl	_tga_fd_get_signed_bits
	.loc	2 457 5                         ; bdf_tga.c:457:5
	str	w0, [sp, #8]
Ltmp135:
	.loc	2 459 8 is_stmt 1               ; bdf_tga.c:459:8
	ldur	x8, [x29, #-8]
	.loc	2 459 11 is_stmt 0              ; bdf_tga.c:459:11
	ldr	w8, [x8, #20]
Ltmp136:
	.loc	2 459 8                         ; bdf_tga.c:459:8
	subs	w8, w8, #0                      ; =0
	b.ls	LBB20_11
; %bb.3:
Ltmp137:
	.loc	2 462 20 is_stmt 1              ; bdf_tga.c:462:20
	ldr	w10, [sp, #16]
	.loc	2 462 5 is_stmt 0               ; bdf_tga.c:462:5
	ldur	x9, [x29, #-8]
	.loc	2 462 17                        ; bdf_tga.c:462:17
	ldr	w8, [x9]
	add	w8, w8, w10
	str	w8, [x9]
	.loc	2 463 20 is_stmt 1              ; bdf_tga.c:463:20
	ldur	x8, [x29, #-8]
	.loc	2 463 23 is_stmt 0              ; bdf_tga.c:463:23
	ldr	w10, [x8, #24]
	.loc	2 463 5                         ; bdf_tga.c:463:5
	ldur	x9, [x29, #-8]
	.loc	2 463 17                        ; bdf_tga.c:463:17
	ldr	w8, [x9, #4]
	subs	w8, w8, w10
	str	w8, [x9, #4]
	.loc	2 464 19 is_stmt 1              ; bdf_tga.c:464:19
	ldr	w10, [sp, #12]
	.loc	2 464 5 is_stmt 0               ; bdf_tga.c:464:5
	ldur	x9, [x29, #-8]
	.loc	2 464 17                        ; bdf_tga.c:464:17
	ldr	w8, [x9, #4]
	subs	w8, w8, w10
	str	w8, [x9, #4]
	.loc	2 467 5 is_stmt 1               ; bdf_tga.c:467:5
	ldur	x8, [x29, #-8]
	.loc	2 467 10 is_stmt 0              ; bdf_tga.c:467:10
	str	wzr, [x8, #12]
	.loc	2 468 5 is_stmt 1               ; bdf_tga.c:468:5
	ldur	x8, [x29, #-8]
	.loc	2 468 10 is_stmt 0              ; bdf_tga.c:468:10
	str	wzr, [x8, #16]
LBB20_4:                                ; =>This Loop Header: Depth=1
                                        ;     Child Loop BB20_5 Depth 2
Ltmp138:
	.loc	2 473 36 is_stmt 1              ; bdf_tga.c:473:36
	ldur	x0, [x29, #-8]
	.loc	2 0 0 is_stmt 0                 ; bdf_tga.c:0:0
	adrp	x8, _bits_per_0@PAGE
	.loc	2 473 39                        ; bdf_tga.c:473:39
	ldr	w1, [x8, _bits_per_0@PAGEOFF]
	.loc	2 473 11                        ; bdf_tga.c:473:11
	bl	_tga_fd_get_unsigned_bits
	.loc	2 473 9                         ; bdf_tga.c:473:9
	str	w0, [sp, #24]
	.loc	2 474 36 is_stmt 1              ; bdf_tga.c:474:36
	ldur	x0, [x29, #-8]
	.loc	2 0 0 is_stmt 0                 ; bdf_tga.c:0:0
	adrp	x8, _bits_per_1@PAGE
	.loc	2 474 39                        ; bdf_tga.c:474:39
	ldr	w1, [x8, _bits_per_1@PAGEOFF]
	.loc	2 474 11                        ; bdf_tga.c:474:11
	bl	_tga_fd_get_unsigned_bits
	.loc	2 474 9                         ; bdf_tga.c:474:9
	str	w0, [sp, #20]
LBB20_5:                                ;   Parent Loop BB20_4 Depth=1
                                        ; =>  This Inner Loop Header: Depth=2
Ltmp139:
	.loc	2 477 20 is_stmt 1              ; bdf_tga.c:477:20
	ldur	x0, [x29, #-8]
	.loc	2 477 23 is_stmt 0              ; bdf_tga.c:477:23
	ldr	w1, [sp, #24]
	mov	w2, #0
	.loc	2 477 2                         ; bdf_tga.c:477:2
	bl	_tga_fd_decode_len
	.loc	2 478 20 is_stmt 1              ; bdf_tga.c:478:20
	ldur	x0, [x29, #-8]
	.loc	2 478 23 is_stmt 0              ; bdf_tga.c:478:23
	ldr	w1, [sp, #20]
	mov	w2, #1
	.loc	2 478 2                         ; bdf_tga.c:478:2
	bl	_tga_fd_decode_len
Ltmp140:
; %bb.6:                                ;   in Loop: Header=BB20_5 Depth=2
	.loc	2 479 41 is_stmt 1              ; bdf_tga.c:479:41
	ldur	x0, [x29, #-8]
	mov	w1, #1
	.loc	2 479 16 is_stmt 0              ; bdf_tga.c:479:16
	bl	_tga_fd_get_unsigned_bits
Ltmp141:
	.loc	2 479 7                         ; bdf_tga.c:479:7
	cbnz	w0, LBB20_5
Ltmp142:
; %bb.7:                                ;   in Loop: Header=BB20_4 Depth=1
	.loc	2 481 12 is_stmt 1              ; bdf_tga.c:481:12
	ldur	x8, [x29, #-8]
	.loc	2 481 15 is_stmt 0              ; bdf_tga.c:481:15
	ldr	w8, [x8, #16]
	.loc	2 481 20                        ; bdf_tga.c:481:20
	ldur	x9, [x29, #-8]
	.loc	2 481 23                        ; bdf_tga.c:481:23
	ldr	w9, [x9, #24]
Ltmp143:
	.loc	2 481 12                        ; bdf_tga.c:481:12
	subs	w8, w8, w9
	b.lo	LBB20_9
; %bb.8:
Ltmp144:
	.loc	2 482 2 is_stmt 1               ; bdf_tga.c:482:2
	b	LBB20_10
Ltmp145:
LBB20_9:                                ;   in Loop: Header=BB20_4 Depth=1
	.loc	2 471 5                         ; bdf_tga.c:471:5
	b	LBB20_4
Ltmp146:
LBB20_10:
LBB20_11:
	.loc	2 485 10                        ; bdf_tga.c:485:10
	ldr	w0, [sp, #8]
	.loc	2 485 3 is_stmt 0               ; bdf_tga.c:485:3
	ldp	x29, x30, [sp, #48]             ; 16-byte Folded Reload
	add	sp, sp, #64                     ; =64
	ret
Ltmp147:
Lfunc_end20:
	.cfi_endproc
                                        ; -- End function
	.globl	_tga_draw_glyph                 ; -- Begin function tga_draw_glyph
	.p2align	2
_tga_draw_glyph:                        ; @tga_draw_glyph
Lfunc_begin21:
	.loc	2 490 0 is_stmt 1               ; bdf_tga.c:490:0
	.cfi_startproc
; %bb.0:
	sub	sp, sp, #112                    ; =112
	stp	x29, x30, [sp, #96]             ; 16-byte Folded Spill
	add	x29, sp, #96                    ; =96
	.cfi_def_cfa w29, 16
	.cfi_offset w30, -8
	.cfi_offset w29, -16
	stur	w0, [x29, #-4]
	stur	w1, [x29, #-8]
	sturh	w2, [x29, #-10]
	stur	w3, [x29, #-16]
Ltmp148:
	.loc	2 491 12 prologue_end           ; bdf_tga.c:491:12
	stur	wzr, [x29, #-20]
	.loc	2 493 16                        ; bdf_tga.c:493:16
	ldur	w8, [x29, #-4]
	.loc	2 493 14 is_stmt 0              ; bdf_tga.c:493:14
	str	w8, [sp, #16]
	.loc	2 494 16 is_stmt 1              ; bdf_tga.c:494:16
	ldur	w8, [x29, #-8]
	.loc	2 494 14 is_stmt 0              ; bdf_tga.c:494:14
	str	w8, [sp, #20]
	.loc	2 495 23 is_stmt 1              ; bdf_tga.c:495:23
	ldur	w8, [x29, #-16]
	.loc	2 495 22 is_stmt 0              ; bdf_tga.c:495:22
	subs	w8, w8, #0                      ; =0
	cset	w8, eq
	and	w8, w8, #0x1
	.loc	2 495 20                        ; bdf_tga.c:495:20
	str	w8, [sp, #24]
	.loc	2 496 44 is_stmt 1              ; bdf_tga.c:496:44
	ldurh	w0, [x29, #-10]
	.loc	2 496 25 is_stmt 0              ; bdf_tga.c:496:25
	bl	_tga_get_glyph_data
	.loc	2 496 12                        ; bdf_tga.c:496:12
	str	x0, [sp, #8]
Ltmp149:
	.loc	2 497 8 is_stmt 1               ; bdf_tga.c:497:8
	ldr	x8, [sp, #8]
Ltmp150:
	.loc	2 497 8 is_stmt 0               ; bdf_tga.c:497:8
	cbz	x8, LBB21_4
; %bb.1:
Ltmp151:
	.loc	2 499 28 is_stmt 1              ; bdf_tga.c:499:28
	ldr	x1, [sp, #8]
	.loc	2 499 40 is_stmt 0              ; bdf_tga.c:499:40
	ldurh	w9, [x29, #-10]
	mov	w8, #0
	subs	w9, w9, #255                    ; =255
	csinc	w2, w8, wzr, lt
	add	x0, sp, #16                     ; =16
	.loc	2 499 10                        ; bdf_tga.c:499:10
	bl	_tga_fd_decode
	.loc	2 499 8                         ; bdf_tga.c:499:8
	stur	w0, [x29, #-20]
Ltmp152:
	.loc	2 500 10 is_stmt 1              ; bdf_tga.c:500:10
	ldur	w8, [x29, #-16]
Ltmp153:
	.loc	2 500 10 is_stmt 0              ; bdf_tga.c:500:10
	cbz	w8, LBB21_3
; %bb.2:
Ltmp154:
	.loc	2 502 21 is_stmt 1              ; bdf_tga.c:502:21
	ldur	w8, [x29, #-4]
	.loc	2 502 23 is_stmt 0              ; bdf_tga.c:502:23
	ldur	w9, [x29, #-20]
	.loc	2 502 22                        ; bdf_tga.c:502:22
	add	w9, w8, w9
	.loc	2 502 27                        ; bdf_tga.c:502:27
	ldur	w8, [x29, #-8]
	.loc	2 502 7                         ; bdf_tga.c:502:7
	and	w0, w9, #0xffff
	and	w1, w8, #0xffff
	mov	w2, #28
	mov	w3, #133
	mov	w4, #240
	bl	_tga_set_pixel
	.loc	2 503 21 is_stmt 1              ; bdf_tga.c:503:21
	ldur	w9, [x29, #-4]
	.loc	2 503 24 is_stmt 0              ; bdf_tga.c:503:24
	ldur	w8, [x29, #-8]
	.loc	2 503 7                         ; bdf_tga.c:503:7
	and	w0, w9, #0xffff
	and	w1, w8, #0xffff
	mov	w2, #255
	mov	w3, #164
	mov	w4, #0
	bl	_tga_set_pixel
Ltmp155:
LBB21_3:
LBB21_4:
	.loc	2 506 10 is_stmt 1              ; bdf_tga.c:506:10
	ldur	w0, [x29, #-20]
	.loc	2 506 3 is_stmt 0               ; bdf_tga.c:506:3
	ldp	x29, x30, [sp, #96]             ; 16-byte Folded Reload
	add	sp, sp, #112                    ; =112
	ret
Ltmp156:
Lfunc_end21:
	.cfi_endproc
                                        ; -- End function
	.globl	_tga_draw_string                ; -- Begin function tga_draw_string
	.p2align	2
_tga_draw_string:                       ; @tga_draw_string
Lfunc_begin22:
	.loc	2 510 0 is_stmt 1               ; bdf_tga.c:510:0
	.cfi_startproc
; %bb.0:
	sub	sp, sp, #48                     ; =48
	stp	x29, x30, [sp, #32]             ; 16-byte Folded Spill
	add	x29, sp, #32                    ; =32
	.cfi_def_cfa w29, 16
	.cfi_offset w30, -8
	.cfi_offset w29, -16
	stur	w0, [x29, #-4]
	stur	w1, [x29, #-8]
	str	x2, [sp, #16]
	str	w3, [sp, #12]
	str	w4, [sp, #8]
Ltmp157:
	.loc	2 511 12 prologue_end           ; bdf_tga.c:511:12
	str	wzr, [sp, #4]
LBB22_1:                                ; =>This Inner Loop Header: Depth=1
	.loc	2 512 11                        ; bdf_tga.c:512:11
	ldr	x8, [sp, #16]
	.loc	2 512 10 is_stmt 0              ; bdf_tga.c:512:10
	ldrsb	w8, [x8]
	.loc	2 512 3                         ; bdf_tga.c:512:3
	cbz	w8, LBB22_7
; %bb.2:                                ;   in Loop: Header=BB22_1 Depth=1
Ltmp158:
	.loc	2 514 26 is_stmt 1              ; bdf_tga.c:514:26
	ldur	w8, [x29, #-4]
	.loc	2 514 28 is_stmt 0              ; bdf_tga.c:514:28
	ldr	w9, [sp, #4]
	.loc	2 514 27                        ; bdf_tga.c:514:27
	add	w0, w8, w9
	.loc	2 514 31                        ; bdf_tga.c:514:31
	ldur	w1, [x29, #-8]
	.loc	2 514 34                        ; bdf_tga.c:514:34
	ldr	x8, [sp, #16]
	.loc	2 514 33                        ; bdf_tga.c:514:33
	ldrsb	w8, [x8]
	.loc	2 514 37                        ; bdf_tga.c:514:37
	ldr	w3, [sp, #12]
	.loc	2 514 11                        ; bdf_tga.c:514:11
	and	w2, w8, #0xffff
	bl	_tga_draw_glyph
	.loc	2 514 8                         ; bdf_tga.c:514:8
	ldr	w8, [sp, #4]
	add	w8, w8, w0
	str	w8, [sp, #4]
Ltmp159:
	.loc	2 515 10 is_stmt 1              ; bdf_tga.c:515:10
	ldr	w8, [sp, #8]
Ltmp160:
	.loc	2 515 10 is_stmt 0              ; bdf_tga.c:515:10
	subs	w8, w8, #0                      ; =0
	b.ls	LBB22_6
; %bb.3:                                ;   in Loop: Header=BB22_1 Depth=1
Ltmp161:
	.loc	2 516 12 is_stmt 1              ; bdf_tga.c:516:12
	ldr	w8, [sp, #4]
	.loc	2 516 17 is_stmt 0              ; bdf_tga.c:516:17
	ldr	w9, [sp, #8]
Ltmp162:
	.loc	2 516 12                        ; bdf_tga.c:516:12
	subs	w8, w8, w9
	b.ls	LBB22_5
; %bb.4:
Ltmp163:
	.loc	2 517 2 is_stmt 1               ; bdf_tga.c:517:2
	b	LBB22_7
Ltmp164:
LBB22_5:                                ;   in Loop: Header=BB22_1 Depth=1
LBB22_6:                                ;   in Loop: Header=BB22_1 Depth=1
	.loc	2 518 6                         ; bdf_tga.c:518:6
	ldr	x8, [sp, #16]
	add	x8, x8, #1                      ; =1
	str	x8, [sp, #16]
Ltmp165:
	.loc	2 512 3                         ; bdf_tga.c:512:3
	b	LBB22_1
LBB22_7:
	.loc	2 520 10                        ; bdf_tga.c:520:10
	ldr	w0, [sp, #4]
	.loc	2 520 3 is_stmt 0               ; bdf_tga.c:520:3
	ldp	x29, x30, [sp, #32]             ; 16-byte Folded Reload
	add	sp, sp, #48                     ; =48
	ret
Ltmp166:
Lfunc_end22:
	.cfi_endproc
                                        ; -- End function
.zerofill __DATA,__bss,_char_width,4,2  ; @char_width
.zerofill __DATA,__bss,_char_height,4,2 ; @char_height
.zerofill __DATA,__bss,_tga_width,2,1   ; @tga_width
.zerofill __DATA,__bss,_tga_height,2,1  ; @tga_height
.zerofill __DATA,__bss,_tga_used_height,2,1 ; @tga_used_height
.zerofill __DATA,__bss,_tga_pixel_intersection,4,2 ; @tga_pixel_intersection
.zerofill __DATA,__bss,_tga_data,8,3    ; @tga_data
	.section	__TEXT,__cstring,cstring_literals
l_.str:                                 ; @.str
	.asciz	"wb"

l_.str.1:                               ; @.str.1
	.asciz	"TRUEVISION-XFILE."

.zerofill __DATA,__bss,_glyph_cnt,4,2   ; @glyph_cnt
.zerofill __DATA,__bss,_bits_per_0,4,2  ; @bits_per_0
.zerofill __DATA,__bss,_bits_per_1,4,2  ; @bits_per_1
.zerofill __DATA,__bss,_bits_per_char_width,4,2 ; @bits_per_char_width
.zerofill __DATA,__bss,_bits_per_char_height,4,2 ; @bits_per_char_height
.zerofill __DATA,__bss,_bits_per_char_x,4,2 ; @bits_per_char_x
.zerofill __DATA,__bss,_bits_per_char_y,4,2 ; @bits_per_char_y
.zerofill __DATA,__bss,_bits_per_delta_x,4,2 ; @bits_per_delta_x
.zerofill __DATA,__bss,_char_descent,4,2 ; @char_descent
.zerofill __DATA,__bss,_unicode_start_pos,4,2 ; @unicode_start_pos
.zerofill __DATA,__bss,_tga_font,8,3    ; @tga_font
	.file	7 "/Library/Developer/CommandLineTools/SDKs/MacOSX.sdk/usr/include" "_stdio.h"
	.file	8 "/Library/Developer/CommandLineTools/SDKs/MacOSX.sdk/usr/include/sys" "_types.h"