	.section	__TEXT,__text,regular,pure_instructions
	.build_version macos, 12, 0	sdk_version 12, 0
	.file	1 "/Users/songsizhou/Documents/GitHub/u8g2_font_builder/u8g2/tools/font/bdfconv" "bdf_parser.c"
	.globl	_bf_ParseFile                   ; -- Begin function bf_ParseFile
	.p2align	2
_bf_ParseFile:                          ; @bf_ParseFile
Lfunc_begin0:
	.loc	1 465 0                         ; bdf_parser.c:465:0
	.cfi_startproc
; %bb.0:
	sub	sp, sp, #64                     ; =64
	stp	x29, x30, [sp, #48]             ; 16-byte Folded Spill
	add	x29, sp, #48                    ; =48
	.cfi_def_cfa w29, 16
	.cfi_offset w30, -8
	.cfi_offset w29, -16
	stur	x0, [x29, #-16]
	str	x1, [sp, #24]
Ltmp0:
	.loc	1 467 18 prologue_end           ; bdf_parser.c:467:18
	ldr	x0, [sp, #24]
	.loc	1 0 0 is_stmt 0                 ; bdf_parser.c:0:0
	adrp	x1, l_.str@PAGE
	add	x1, x1, l_.str@PAGEOFF
	.loc	1 467 12                        ; bdf_parser.c:467:12
	bl	_fopen
	.loc	1 467 3                         ; bdf_parser.c:467:3
	ldur	x8, [x29, #-16]
	.loc	1 467 10                        ; bdf_parser.c:467:10
	str	x0, [x8, #1128]
Ltmp1:
	.loc	1 468 8 is_stmt 1               ; bdf_parser.c:468:8
	ldur	x8, [x29, #-16]
	.loc	1 468 12 is_stmt 0              ; bdf_parser.c:468:12
	ldr	x8, [x8, #1128]
Ltmp2:
	.loc	1 468 8                         ; bdf_parser.c:468:8
	cbnz	x8, LBB0_2
; %bb.1:
Ltmp3:
	.loc	1 470 14 is_stmt 1              ; bdf_parser.c:470:14
	ldur	x0, [x29, #-16]
	.loc	1 470 48 is_stmt 0              ; bdf_parser.c:470:48
	ldr	x8, [sp, #24]
	.loc	1 0 0                           ; bdf_parser.c:0:0
	adrp	x1, l_.str.1@PAGE
	add	x1, x1, l_.str.1@PAGEOFF
	.loc	1 470 5                         ; bdf_parser.c:470:5
	mov	x9, sp
	str	x8, [x9]
	bl	_bf_Error
	.loc	1 471 5 is_stmt 1               ; bdf_parser.c:471:5
	stur	wzr, [x29, #-4]
	b	LBB0_3
Ltmp4:
LBB0_2:
	.loc	1 473 21                        ; bdf_parser.c:473:21
	ldur	x0, [x29, #-16]
	.loc	1 473 7 is_stmt 0               ; bdf_parser.c:473:7
	bl	_bf_parse_file
	.loc	1 473 5                         ; bdf_parser.c:473:5
	str	w0, [sp, #20]
	.loc	1 474 10 is_stmt 1              ; bdf_parser.c:474:10
	ldur	x8, [x29, #-16]
	.loc	1 474 14 is_stmt 0              ; bdf_parser.c:474:14
	ldr	x0, [x8, #1128]
	.loc	1 474 3                         ; bdf_parser.c:474:3
	bl	_fclose
	.loc	1 475 10 is_stmt 1              ; bdf_parser.c:475:10
	ldur	x0, [x29, #-16]
	.loc	1 475 50 is_stmt 0              ; bdf_parser.c:475:50
	ldr	x10, [sp, #24]
	.loc	1 475 56                        ; bdf_parser.c:475:56
	ldur	x8, [x29, #-16]
	.loc	1 475 60                        ; bdf_parser.c:475:60
	ldr	w9, [x8, #16]
                                        ; implicit-def: $x8
	mov	x8, x9
	.loc	1 0 0                           ; bdf_parser.c:0:0
	adrp	x1, l_.str.2@PAGE
	add	x1, x1, l_.str.2@PAGEOFF
	.loc	1 475 3                         ; bdf_parser.c:475:3
	mov	x9, sp
	str	x10, [x9]
	str	x8, [x9, #8]
	bl	_bf_Log
	.loc	1 476 10 is_stmt 1              ; bdf_parser.c:476:10
	ldr	w8, [sp, #20]
	.loc	1 476 3 is_stmt 0               ; bdf_parser.c:476:3
	stur	w8, [x29, #-4]
LBB0_3:
	.loc	1 477 1 is_stmt 1               ; bdf_parser.c:477:1
	ldur	w0, [x29, #-4]
	ldp	x29, x30, [sp, #48]             ; 16-byte Folded Reload
	add	sp, sp, #64                     ; =64
	ret
Ltmp5:
Lfunc_end0:
	.cfi_endproc
                                        ; -- End function
	.p2align	2                               ; -- Begin function bf_parse_file
_bf_parse_file:                         ; @bf_parse_file
Lfunc_begin1:
	.loc	1 447 0                         ; bdf_parser.c:447:0
	.cfi_startproc
; %bb.0:
	sub	sp, sp, #48                     ; =48
	stp	x29, x30, [sp, #32]             ; 16-byte Folded Spill
	add	x29, sp, #32                    ; =32
	.cfi_def_cfa w29, 16
	.cfi_offset w30, -8
	.cfi_offset w29, -16
	str	x0, [sp, #16]
Ltmp6:
	.loc	1 448 8 prologue_end            ; bdf_parser.c:448:8
	str	xzr, [sp, #8]
	.loc	1 449 3                         ; bdf_parser.c:449:3
	ldr	x8, [sp, #16]
	.loc	1 449 25 is_stmt 0              ; bdf_parser.c:449:25
	str	wzr, [x8, #1052]
LBB1_1:                                 ; =>This Inner Loop Header: Depth=1
Ltmp7:
	.loc	1 452 13 is_stmt 1              ; bdf_parser.c:452:13
	ldr	x8, [sp, #8]
	add	x8, x8, #1                      ; =1
	str	x8, [sp, #8]
Ltmp8:
	.loc	1 453 16                        ; bdf_parser.c:453:16
	ldr	x8, [sp, #16]
	.loc	1 453 20 is_stmt 0              ; bdf_parser.c:453:20
	add	x0, x8, #24                     ; =24
	.loc	1 453 44                        ; bdf_parser.c:453:44
	ldr	x8, [sp, #16]
	.loc	1 453 48                        ; bdf_parser.c:453:48
	ldr	x2, [x8, #1128]
	mov	w1, #1024
	.loc	1 453 10                        ; bdf_parser.c:453:10
	bl	_fgets
Ltmp9:
	.loc	1 453 10                        ; bdf_parser.c:453:10
	cbnz	x0, LBB1_3
; %bb.2:
Ltmp10:
	.loc	1 454 7 is_stmt 1               ; bdf_parser.c:454:7
	b	LBB1_6
Ltmp11:
LBB1_3:                                 ;   in Loop: Header=BB1_1 Depth=1
	.loc	1 455 24                        ; bdf_parser.c:455:24
	ldr	x0, [sp, #16]
	.loc	1 455 10 is_stmt 0              ; bdf_parser.c:455:10
	bl	_bf_parse_line
Ltmp12:
	.loc	1 455 10                        ; bdf_parser.c:455:10
	cbnz	w0, LBB1_5
; %bb.4:
Ltmp13:
	.loc	1 457 16 is_stmt 1              ; bdf_parser.c:457:16
	ldr	x0, [sp, #16]
	.loc	1 457 47 is_stmt 0              ; bdf_parser.c:457:47
	ldr	x8, [sp, #8]
	.loc	1 0 0                           ; bdf_parser.c:0:0
	adrp	x1, l_.str.3@PAGE
	add	x1, x1, l_.str.3@PAGEOFF
	.loc	1 457 7                         ; bdf_parser.c:457:7
	mov	x9, sp
	str	x8, [x9]
	bl	_bf_Error
	.loc	1 458 7 is_stmt 1               ; bdf_parser.c:458:7
	stur	wzr, [x29, #-4]
	b	LBB1_7
Ltmp14:
LBB1_5:                                 ;   in Loop: Header=BB1_1 Depth=1
	.loc	1 450 3                         ; bdf_parser.c:450:3
	b	LBB1_1
Ltmp15:
LBB1_6:
	.loc	1 0 3 is_stmt 0                 ; bdf_parser.c:0:3
	mov	w8, #1
	.loc	1 461 3 is_stmt 1               ; bdf_parser.c:461:3
	stur	w8, [x29, #-4]
LBB1_7:
	.loc	1 462 1                         ; bdf_parser.c:462:1
	ldur	w0, [x29, #-4]
	ldp	x29, x30, [sp, #32]             ; 16-byte Folded Reload
	add	sp, sp, #48                     ; =48
	ret
Ltmp16:
Lfunc_end1:
	.cfi_endproc
                                        ; -- End function
	.p2align	2                               ; -- Begin function bf_parse_line
_bf_parse_line:                         ; @bf_parse_line
Lfunc_begin2:
	.loc	1 255 0                         ; bdf_parser.c:255:0
	.cfi_startproc
; %bb.0:
	sub	sp, sp, #64                     ; =64
	stp	x29, x30, [sp, #48]             ; 16-byte Folded Spill
	add	x29, sp, #48                    ; =48
	.cfi_def_cfa w29, 16
	.cfi_offset w30, -8
	.cfi_offset w29, -16
	stur	x0, [x29, #-16]
Ltmp17:
	.loc	1 258 3 prologue_end            ; bdf_parser.c:258:3
	ldur	x8, [x29, #-16]
	.loc	1 258 16 is_stmt 0              ; bdf_parser.c:258:16
	str	wzr, [x8, #1048]
	.loc	1 259 16 is_stmt 1              ; bdf_parser.c:259:16
	ldur	x0, [x29, #-16]
	.loc	1 259 3 is_stmt 0               ; bdf_parser.c:259:3
	bl	_bf_skipspace
Ltmp18:
	.loc	1 261 8 is_stmt 1               ; bdf_parser.c:261:8
	ldur	x8, [x29, #-16]
	.loc	1 261 12 is_stmt 0              ; bdf_parser.c:261:12
	ldr	w8, [x8, #1052]
Ltmp19:
	.loc	1 261 8                         ; bdf_parser.c:261:8
	cbnz	w8, LBB2_127
; %bb.1:
Ltmp20:
	.loc	1 264 5 is_stmt 1               ; bdf_parser.c:264:5
	ldur	x8, [x29, #-16]
	.loc	1 264 18 is_stmt 0              ; bdf_parser.c:264:18
	str	wzr, [x8, #1116]
	.loc	1 265 5 is_stmt 1               ; bdf_parser.c:265:5
	ldur	x0, [x29, #-16]
	bl	_bf_get_string
	mov	x1, x0
Ltmp21:
	.loc	1 0 0 is_stmt 0                 ; bdf_parser.c:0:0
	adrp	x0, _bf_parse_line.cmd@PAGE
	add	x0, x0, _bf_parse_line.cmd@PAGEOFF
	str	x0, [sp, #16]                   ; 8-byte Folded Spill
	mov	x2, #1024
Ltmp22:
	.loc	1 265 5                         ; bdf_parser.c:265:5
	bl	___strcpy_chk
	ldr	x0, [sp, #16]                   ; 8-byte Folded Reload
Ltmp23:
	.loc	1 0 0                           ; bdf_parser.c:0:0
	adrp	x1, l_.str.4@PAGE
	add	x1, x1, l_.str.4@PAGEOFF
	.loc	1 267 10 is_stmt 1              ; bdf_parser.c:267:10
	bl	_strcmp
Ltmp24:
	.loc	1 267 10 is_stmt 0              ; bdf_parser.c:267:10
	cbnz	w0, LBB2_3
; %bb.2:
	.loc	1 0 10                          ; bdf_parser.c:0:10
	mov	w8, #1
Ltmp25:
	.loc	1 269 7 is_stmt 1               ; bdf_parser.c:269:7
	stur	w8, [x29, #-4]
	b	LBB2_138
Ltmp26:
LBB2_3:
	.loc	1 0 0 is_stmt 0                 ; bdf_parser.c:0:0
	adrp	x0, _bf_parse_line.cmd@PAGE
	add	x0, x0, _bf_parse_line.cmd@PAGEOFF
Ltmp27:
	adrp	x1, l_.str.5@PAGE
	add	x1, x1, l_.str.5@PAGEOFF
	.loc	1 271 15 is_stmt 1              ; bdf_parser.c:271:15
	bl	_strcmp
Ltmp28:
	.loc	1 271 15 is_stmt 0              ; bdf_parser.c:271:15
	cbnz	w0, LBB2_5
; %bb.4:
Ltmp29:
	.loc	1 273 5 is_stmt 1               ; bdf_parser.c:273:5
	b	LBB2_125
Ltmp30:
LBB2_5:
	.loc	1 0 0 is_stmt 0                 ; bdf_parser.c:0:0
	adrp	x0, _bf_parse_line.cmd@PAGE
	add	x0, x0, _bf_parse_line.cmd@PAGEOFF
Ltmp31:
	adrp	x1, l_.str.6@PAGE
	add	x1, x1, l_.str.6@PAGEOFF
	.loc	1 274 15 is_stmt 1              ; bdf_parser.c:274:15
	bl	_strcmp
Ltmp32:
	.loc	1 274 15 is_stmt 0              ; bdf_parser.c:274:15
	cbnz	w0, LBB2_9
; %bb.6:
Ltmp33:
	.loc	1 276 12 is_stmt 1              ; bdf_parser.c:276:12
	ldur	x8, [x29, #-16]
	.loc	1 276 16 is_stmt 0              ; bdf_parser.c:276:16
	ldr	x8, [x8, #1136]
Ltmp34:
	.loc	1 276 12                        ; bdf_parser.c:276:12
	cbz	x8, LBB2_8
; %bb.7:
Ltmp35:
	.loc	1 277 7 is_stmt 1               ; bdf_parser.c:277:7
	ldur	x8, [x29, #-16]
	.loc	1 277 11 is_stmt 0              ; bdf_parser.c:277:11
	ldr	x0, [x8, #1136]
	.loc	1 277 2                         ; bdf_parser.c:277:2
	bl	_free
Ltmp36:
LBB2_8:
	.loc	1 278 47 is_stmt 1              ; bdf_parser.c:278:47
	ldur	x0, [x29, #-16]
	.loc	1 278 29 is_stmt 0              ; bdf_parser.c:278:29
	bl	_bf_get_eol_string
	.loc	1 278 22                        ; bdf_parser.c:278:22
	bl	_strdup
	.loc	1 278 7                         ; bdf_parser.c:278:7
	ldur	x8, [x29, #-16]
	.loc	1 278 20                        ; bdf_parser.c:278:20
	str	x0, [x8, #1136]
	.loc	1 279 5 is_stmt 1               ; bdf_parser.c:279:5
	b	LBB2_124
Ltmp37:
LBB2_9:
	.loc	1 0 0 is_stmt 0                 ; bdf_parser.c:0:0
	adrp	x0, _bf_parse_line.cmd@PAGE
	add	x0, x0, _bf_parse_line.cmd@PAGEOFF
Ltmp38:
	adrp	x1, l_.str.7@PAGE
	add	x1, x1, l_.str.7@PAGEOFF
	.loc	1 280 15 is_stmt 1              ; bdf_parser.c:280:15
	bl	_strcmp
Ltmp39:
	.loc	1 280 15 is_stmt 0              ; bdf_parser.c:280:15
	cbnz	w0, LBB2_11
; %bb.10:
Ltmp40:
	.loc	1 282 5 is_stmt 1               ; bdf_parser.c:282:5
	b	LBB2_123
Ltmp41:
LBB2_11:
	.loc	1 0 0 is_stmt 0                 ; bdf_parser.c:0:0
	adrp	x0, _bf_parse_line.cmd@PAGE
	add	x0, x0, _bf_parse_line.cmd@PAGEOFF
Ltmp42:
	adrp	x1, l_.str.8@PAGE
	add	x1, x1, l_.str.8@PAGEOFF
	.loc	1 283 15 is_stmt 1              ; bdf_parser.c:283:15
	bl	_strcmp
Ltmp43:
	.loc	1 283 15 is_stmt 0              ; bdf_parser.c:283:15
	cbnz	w0, LBB2_13
; %bb.12:
Ltmp44:
	.loc	1 285 5 is_stmt 1               ; bdf_parser.c:285:5
	b	LBB2_122
Ltmp45:
LBB2_13:
	.loc	1 0 0 is_stmt 0                 ; bdf_parser.c:0:0
	adrp	x0, _bf_parse_line.cmd@PAGE
	add	x0, x0, _bf_parse_line.cmd@PAGEOFF
Ltmp46:
	adrp	x1, l_.str.9@PAGE
	add	x1, x1, l_.str.9@PAGEOFF
	.loc	1 286 15 is_stmt 1              ; bdf_parser.c:286:15
	bl	_strcmp
Ltmp47:
	.loc	1 286 15 is_stmt 0              ; bdf_parser.c:286:15
	cbnz	w0, LBB2_15
; %bb.14:
Ltmp48:
	.loc	1 288 5 is_stmt 1               ; bdf_parser.c:288:5
	b	LBB2_121
Ltmp49:
LBB2_15:
	.loc	1 0 0 is_stmt 0                 ; bdf_parser.c:0:0
	adrp	x0, _bf_parse_line.cmd@PAGE
	add	x0, x0, _bf_parse_line.cmd@PAGEOFF
Ltmp50:
	adrp	x1, l_.str.10@PAGE
	add	x1, x1, l_.str.10@PAGEOFF
	.loc	1 289 15 is_stmt 1              ; bdf_parser.c:289:15
	bl	_strcmp
Ltmp51:
	.loc	1 289 15 is_stmt 0              ; bdf_parser.c:289:15
	cbnz	w0, LBB2_17
; %bb.16:
Ltmp52:
	.loc	1 291 5 is_stmt 1               ; bdf_parser.c:291:5
	b	LBB2_120
Ltmp53:
LBB2_17:
	.loc	1 0 0 is_stmt 0                 ; bdf_parser.c:0:0
	adrp	x0, _bf_parse_line.cmd@PAGE
	add	x0, x0, _bf_parse_line.cmd@PAGEOFF
Ltmp54:
	adrp	x1, l_.str.11@PAGE
	add	x1, x1, l_.str.11@PAGEOFF
	.loc	1 292 15 is_stmt 1              ; bdf_parser.c:292:15
	bl	_strcmp
Ltmp55:
	.loc	1 292 15 is_stmt 0              ; bdf_parser.c:292:15
	cbnz	w0, LBB2_19
; %bb.18:
Ltmp56:
	.loc	1 294 5 is_stmt 1               ; bdf_parser.c:294:5
	b	LBB2_119
Ltmp57:
LBB2_19:
	.loc	1 0 0 is_stmt 0                 ; bdf_parser.c:0:0
	adrp	x0, _bf_parse_line.cmd@PAGE
	add	x0, x0, _bf_parse_line.cmd@PAGEOFF
Ltmp58:
	adrp	x1, l_.str.12@PAGE
	add	x1, x1, l_.str.12@PAGEOFF
	.loc	1 295 15 is_stmt 1              ; bdf_parser.c:295:15
	bl	_strcmp
Ltmp59:
	.loc	1 295 15 is_stmt 0              ; bdf_parser.c:295:15
	cbnz	w0, LBB2_21
; %bb.20:
Ltmp60:
	.loc	1 297 5 is_stmt 1               ; bdf_parser.c:297:5
	b	LBB2_118
Ltmp61:
LBB2_21:
	.loc	1 0 0 is_stmt 0                 ; bdf_parser.c:0:0
	adrp	x0, _bf_parse_line.cmd@PAGE
	add	x0, x0, _bf_parse_line.cmd@PAGEOFF
Ltmp62:
	adrp	x1, l_.str.13@PAGE
	add	x1, x1, l_.str.13@PAGEOFF
	.loc	1 298 15 is_stmt 1              ; bdf_parser.c:298:15
	bl	_strcmp
Ltmp63:
	.loc	1 298 15 is_stmt 0              ; bdf_parser.c:298:15
	cbnz	w0, LBB2_23
; %bb.22:
Ltmp64:
	.loc	1 300 5 is_stmt 1               ; bdf_parser.c:300:5
	b	LBB2_117
Ltmp65:
LBB2_23:
	.loc	1 0 0 is_stmt 0                 ; bdf_parser.c:0:0
	adrp	x0, _bf_parse_line.cmd@PAGE
	add	x0, x0, _bf_parse_line.cmd@PAGEOFF
Ltmp66:
	adrp	x1, l_.str.14@PAGE
	add	x1, x1, l_.str.14@PAGEOFF
	.loc	1 301 15 is_stmt 1              ; bdf_parser.c:301:15
	bl	_strcmp
Ltmp67:
	.loc	1 301 15 is_stmt 0              ; bdf_parser.c:301:15
	cbnz	w0, LBB2_25
; %bb.24:
Ltmp68:
	.loc	1 303 5 is_stmt 1               ; bdf_parser.c:303:5
	b	LBB2_116
Ltmp69:
LBB2_25:
	.loc	1 0 0 is_stmt 0                 ; bdf_parser.c:0:0
	adrp	x0, _bf_parse_line.cmd@PAGE
	add	x0, x0, _bf_parse_line.cmd@PAGEOFF
Ltmp70:
	adrp	x1, l_.str.15@PAGE
	add	x1, x1, l_.str.15@PAGEOFF
	.loc	1 304 15 is_stmt 1              ; bdf_parser.c:304:15
	bl	_strcmp
Ltmp71:
	.loc	1 304 15 is_stmt 0              ; bdf_parser.c:304:15
	cbnz	w0, LBB2_27
; %bb.26:
Ltmp72:
	.loc	1 306 5 is_stmt 1               ; bdf_parser.c:306:5
	b	LBB2_115
Ltmp73:
LBB2_27:
	.loc	1 0 0 is_stmt 0                 ; bdf_parser.c:0:0
	adrp	x0, _bf_parse_line.cmd@PAGE
	add	x0, x0, _bf_parse_line.cmd@PAGEOFF
Ltmp74:
	adrp	x1, l_.str.16@PAGE
	add	x1, x1, l_.str.16@PAGEOFF
	.loc	1 307 15 is_stmt 1              ; bdf_parser.c:307:15
	bl	_strcmp
Ltmp75:
	.loc	1 307 15 is_stmt 0              ; bdf_parser.c:307:15
	cbnz	w0, LBB2_29
; %bb.28:
Ltmp76:
	.loc	1 309 5 is_stmt 1               ; bdf_parser.c:309:5
	b	LBB2_114
Ltmp77:
LBB2_29:
	.loc	1 0 0 is_stmt 0                 ; bdf_parser.c:0:0
	adrp	x0, _bf_parse_line.cmd@PAGE
	add	x0, x0, _bf_parse_line.cmd@PAGEOFF
Ltmp78:
	adrp	x1, l_.str.17@PAGE
	add	x1, x1, l_.str.17@PAGEOFF
	.loc	1 310 15 is_stmt 1              ; bdf_parser.c:310:15
	bl	_strcmp
Ltmp79:
	.loc	1 310 15 is_stmt 0              ; bdf_parser.c:310:15
	cbnz	w0, LBB2_31
; %bb.30:
Ltmp80:
	.loc	1 312 5 is_stmt 1               ; bdf_parser.c:312:5
	b	LBB2_113
Ltmp81:
LBB2_31:
	.loc	1 0 0 is_stmt 0                 ; bdf_parser.c:0:0
	adrp	x0, _bf_parse_line.cmd@PAGE
	add	x0, x0, _bf_parse_line.cmd@PAGEOFF
Ltmp82:
	adrp	x1, l_.str.18@PAGE
	add	x1, x1, l_.str.18@PAGEOFF
	.loc	1 313 15 is_stmt 1              ; bdf_parser.c:313:15
	bl	_strcmp
Ltmp83:
	.loc	1 313 15 is_stmt 0              ; bdf_parser.c:313:15
	cbnz	w0, LBB2_33
; %bb.32:
Ltmp84:
	.loc	1 315 5 is_stmt 1               ; bdf_parser.c:315:5
	b	LBB2_112
Ltmp85:
LBB2_33:
	.loc	1 0 0 is_stmt 0                 ; bdf_parser.c:0:0
	adrp	x0, _bf_parse_line.cmd@PAGE
	add	x0, x0, _bf_parse_line.cmd@PAGEOFF
Ltmp86:
	adrp	x1, l_.str.19@PAGE
	add	x1, x1, l_.str.19@PAGEOFF
	.loc	1 316 15 is_stmt 1              ; bdf_parser.c:316:15
	bl	_strcmp
Ltmp87:
	.loc	1 316 15 is_stmt 0              ; bdf_parser.c:316:15
	cbnz	w0, LBB2_35
; %bb.34:
Ltmp88:
	.loc	1 318 5 is_stmt 1               ; bdf_parser.c:318:5
	b	LBB2_111
Ltmp89:
LBB2_35:
	.loc	1 0 0 is_stmt 0                 ; bdf_parser.c:0:0
	adrp	x0, _bf_parse_line.cmd@PAGE
	add	x0, x0, _bf_parse_line.cmd@PAGEOFF
Ltmp90:
	adrp	x1, l_.str.20@PAGE
	add	x1, x1, l_.str.20@PAGEOFF
	.loc	1 319 15 is_stmt 1              ; bdf_parser.c:319:15
	bl	_strcmp
Ltmp91:
	.loc	1 319 15 is_stmt 0              ; bdf_parser.c:319:15
	cbnz	w0, LBB2_37
; %bb.36:
Ltmp92:
	.loc	1 321 5 is_stmt 1               ; bdf_parser.c:321:5
	b	LBB2_110
Ltmp93:
LBB2_37:
	.loc	1 0 0 is_stmt 0                 ; bdf_parser.c:0:0
	adrp	x0, _bf_parse_line.cmd@PAGE
	add	x0, x0, _bf_parse_line.cmd@PAGEOFF
Ltmp94:
	adrp	x1, l_.str.21@PAGE
	add	x1, x1, l_.str.21@PAGEOFF
	.loc	1 322 15 is_stmt 1              ; bdf_parser.c:322:15
	bl	_strcmp
Ltmp95:
	.loc	1 322 15 is_stmt 0              ; bdf_parser.c:322:15
	cbnz	w0, LBB2_39
; %bb.38:
Ltmp96:
	.loc	1 324 5 is_stmt 1               ; bdf_parser.c:324:5
	b	LBB2_109
Ltmp97:
LBB2_39:
	.loc	1 0 0 is_stmt 0                 ; bdf_parser.c:0:0
	adrp	x0, _bf_parse_line.cmd@PAGE
	add	x0, x0, _bf_parse_line.cmd@PAGEOFF
Ltmp98:
	adrp	x1, l_.str.22@PAGE
	add	x1, x1, l_.str.22@PAGEOFF
	.loc	1 325 15 is_stmt 1              ; bdf_parser.c:325:15
	bl	_strcmp
Ltmp99:
	.loc	1 325 15 is_stmt 0              ; bdf_parser.c:325:15
	cbnz	w0, LBB2_41
; %bb.40:
Ltmp100:
	.loc	1 327 5 is_stmt 1               ; bdf_parser.c:327:5
	b	LBB2_108
Ltmp101:
LBB2_41:
	.loc	1 0 0 is_stmt 0                 ; bdf_parser.c:0:0
	adrp	x0, _bf_parse_line.cmd@PAGE
	add	x0, x0, _bf_parse_line.cmd@PAGEOFF
Ltmp102:
	adrp	x1, l_.str.23@PAGE
	add	x1, x1, l_.str.23@PAGEOFF
	.loc	1 328 15 is_stmt 1              ; bdf_parser.c:328:15
	bl	_strcmp
Ltmp103:
	.loc	1 328 15 is_stmt 0              ; bdf_parser.c:328:15
	cbnz	w0, LBB2_43
; %bb.42:
Ltmp104:
	.loc	1 330 5 is_stmt 1               ; bdf_parser.c:330:5
	b	LBB2_107
Ltmp105:
LBB2_43:
	.loc	1 0 0 is_stmt 0                 ; bdf_parser.c:0:0
	adrp	x0, _bf_parse_line.cmd@PAGE
	add	x0, x0, _bf_parse_line.cmd@PAGEOFF
Ltmp106:
	adrp	x1, l_.str.24@PAGE
	add	x1, x1, l_.str.24@PAGEOFF
	.loc	1 331 15 is_stmt 1              ; bdf_parser.c:331:15
	bl	_strcmp
Ltmp107:
	.loc	1 331 15 is_stmt 0              ; bdf_parser.c:331:15
	cbnz	w0, LBB2_45
; %bb.44:
Ltmp108:
	.loc	1 333 5 is_stmt 1               ; bdf_parser.c:333:5
	b	LBB2_106
Ltmp109:
LBB2_45:
	.loc	1 0 0 is_stmt 0                 ; bdf_parser.c:0:0
	adrp	x0, _bf_parse_line.cmd@PAGE
	add	x0, x0, _bf_parse_line.cmd@PAGEOFF
Ltmp110:
	adrp	x1, l_.str.25@PAGE
	add	x1, x1, l_.str.25@PAGEOFF
	.loc	1 334 15 is_stmt 1              ; bdf_parser.c:334:15
	bl	_strcmp
Ltmp111:
	.loc	1 334 15 is_stmt 0              ; bdf_parser.c:334:15
	cbnz	w0, LBB2_47
; %bb.46:
Ltmp112:
	.loc	1 336 5 is_stmt 1               ; bdf_parser.c:336:5
	b	LBB2_105
Ltmp113:
LBB2_47:
	.loc	1 0 0 is_stmt 0                 ; bdf_parser.c:0:0
	adrp	x0, _bf_parse_line.cmd@PAGE
	add	x0, x0, _bf_parse_line.cmd@PAGEOFF
Ltmp114:
	adrp	x1, l_.str.26@PAGE
	add	x1, x1, l_.str.26@PAGEOFF
	.loc	1 337 15 is_stmt 1              ; bdf_parser.c:337:15
	bl	_strcmp
Ltmp115:
	.loc	1 337 15 is_stmt 0              ; bdf_parser.c:337:15
	cbnz	w0, LBB2_51
; %bb.48:
Ltmp116:
	.loc	1 339 12 is_stmt 1              ; bdf_parser.c:339:12
	ldur	x8, [x29, #-16]
	.loc	1 339 16 is_stmt 0              ; bdf_parser.c:339:16
	ldr	x8, [x8, #1144]
Ltmp117:
	.loc	1 339 12                        ; bdf_parser.c:339:12
	cbz	x8, LBB2_50
; %bb.49:
Ltmp118:
	.loc	1 340 7 is_stmt 1               ; bdf_parser.c:340:7
	ldur	x8, [x29, #-16]
	.loc	1 340 11 is_stmt 0              ; bdf_parser.c:340:11
	ldr	x0, [x8, #1144]
	.loc	1 340 2                         ; bdf_parser.c:340:2
	bl	_free
Ltmp119:
LBB2_50:
	.loc	1 341 52 is_stmt 1              ; bdf_parser.c:341:52
	ldur	x0, [x29, #-16]
	.loc	1 341 34 is_stmt 0              ; bdf_parser.c:341:34
	bl	_bf_get_eol_string
	.loc	1 341 27                        ; bdf_parser.c:341:27
	bl	_strdup
	.loc	1 341 7                         ; bdf_parser.c:341:7
	ldur	x8, [x29, #-16]
	.loc	1 341 25                        ; bdf_parser.c:341:25
	str	x0, [x8, #1144]
	.loc	1 342 5 is_stmt 1               ; bdf_parser.c:342:5
	b	LBB2_104
Ltmp120:
LBB2_51:
	.loc	1 0 0 is_stmt 0                 ; bdf_parser.c:0:0
	adrp	x0, _bf_parse_line.cmd@PAGE
	add	x0, x0, _bf_parse_line.cmd@PAGEOFF
Ltmp121:
	adrp	x1, l_.str.27@PAGE
	add	x1, x1, l_.str.27@PAGEOFF
	.loc	1 343 15 is_stmt 1              ; bdf_parser.c:343:15
	bl	_strcmp
Ltmp122:
	.loc	1 343 15 is_stmt 0              ; bdf_parser.c:343:15
	cbnz	w0, LBB2_53
; %bb.52:
Ltmp123:
	.loc	1 345 5 is_stmt 1               ; bdf_parser.c:345:5
	b	LBB2_103
Ltmp124:
LBB2_53:
	.loc	1 0 0 is_stmt 0                 ; bdf_parser.c:0:0
	adrp	x0, _bf_parse_line.cmd@PAGE
	add	x0, x0, _bf_parse_line.cmd@PAGEOFF
Ltmp125:
	adrp	x1, l_.str.28@PAGE
	add	x1, x1, l_.str.28@PAGEOFF
	.loc	1 346 15 is_stmt 1              ; bdf_parser.c:346:15
	bl	_strcmp
Ltmp126:
	.loc	1 346 15 is_stmt 0              ; bdf_parser.c:346:15
	cbnz	w0, LBB2_55
; %bb.54:
Ltmp127:
	.loc	1 348 5 is_stmt 1               ; bdf_parser.c:348:5
	b	LBB2_102
Ltmp128:
LBB2_55:
	.loc	1 0 0 is_stmt 0                 ; bdf_parser.c:0:0
	adrp	x0, _bf_parse_line.cmd@PAGE
	add	x0, x0, _bf_parse_line.cmd@PAGEOFF
Ltmp129:
	adrp	x1, l_.str.29@PAGE
	add	x1, x1, l_.str.29@PAGEOFF
	.loc	1 349 15 is_stmt 1              ; bdf_parser.c:349:15
	bl	_strcmp
Ltmp130:
	.loc	1 349 15 is_stmt 0              ; bdf_parser.c:349:15
	cbnz	w0, LBB2_57
; %bb.56:
Ltmp131:
	.loc	1 351 5 is_stmt 1               ; bdf_parser.c:351:5
	b	LBB2_101
Ltmp132:
LBB2_57:
	.loc	1 0 0 is_stmt 0                 ; bdf_parser.c:0:0
	adrp	x0, _bf_parse_line.cmd@PAGE
	add	x0, x0, _bf_parse_line.cmd@PAGEOFF
Ltmp133:
	adrp	x1, l_.str.30@PAGE
	add	x1, x1, l_.str.30@PAGEOFF
	.loc	1 352 15 is_stmt 1              ; bdf_parser.c:352:15
	bl	_strcmp
Ltmp134:
	.loc	1 352 15 is_stmt 0              ; bdf_parser.c:352:15
	cbnz	w0, LBB2_59
; %bb.58:
Ltmp135:
	.loc	1 354 5 is_stmt 1               ; bdf_parser.c:354:5
	b	LBB2_100
Ltmp136:
LBB2_59:
	.loc	1 0 0 is_stmt 0                 ; bdf_parser.c:0:0
	adrp	x0, _bf_parse_line.cmd@PAGE
	add	x0, x0, _bf_parse_line.cmd@PAGEOFF
Ltmp137:
	adrp	x1, l_.str.31@PAGE
	add	x1, x1, l_.str.31@PAGEOFF
	.loc	1 355 15 is_stmt 1              ; bdf_parser.c:355:15
	bl	_strcmp
Ltmp138:
	.loc	1 355 15 is_stmt 0              ; bdf_parser.c:355:15
	cbnz	w0, LBB2_61
; %bb.60:
Ltmp139:
	.loc	1 357 5 is_stmt 1               ; bdf_parser.c:357:5
	b	LBB2_99
Ltmp140:
LBB2_61:
	.loc	1 0 0 is_stmt 0                 ; bdf_parser.c:0:0
	adrp	x0, _bf_parse_line.cmd@PAGE
	add	x0, x0, _bf_parse_line.cmd@PAGEOFF
Ltmp141:
	adrp	x1, l_.str.32@PAGE
	add	x1, x1, l_.str.32@PAGEOFF
	.loc	1 358 15 is_stmt 1              ; bdf_parser.c:358:15
	bl	_strcmp
Ltmp142:
	.loc	1 358 15 is_stmt 0              ; bdf_parser.c:358:15
	cbnz	w0, LBB2_63
; %bb.62:
Ltmp143:
	.loc	1 360 5 is_stmt 1               ; bdf_parser.c:360:5
	b	LBB2_98
Ltmp144:
LBB2_63:
	.loc	1 0 0 is_stmt 0                 ; bdf_parser.c:0:0
	adrp	x0, _bf_parse_line.cmd@PAGE
	add	x0, x0, _bf_parse_line.cmd@PAGEOFF
Ltmp145:
	adrp	x1, l_.str.33@PAGE
	add	x1, x1, l_.str.33@PAGEOFF
	.loc	1 361 15 is_stmt 1              ; bdf_parser.c:361:15
	bl	_strcmp
Ltmp146:
	.loc	1 361 15 is_stmt 0              ; bdf_parser.c:361:15
	cbnz	w0, LBB2_65
; %bb.64:
Ltmp147:
	.loc	1 363 5 is_stmt 1               ; bdf_parser.c:363:5
	b	LBB2_97
Ltmp148:
LBB2_65:
	.loc	1 0 0 is_stmt 0                 ; bdf_parser.c:0:0
	adrp	x0, _bf_parse_line.cmd@PAGE
	add	x0, x0, _bf_parse_line.cmd@PAGEOFF
Ltmp149:
	adrp	x1, l_.str.34@PAGE
	add	x1, x1, l_.str.34@PAGEOFF
	.loc	1 364 15 is_stmt 1              ; bdf_parser.c:364:15
	bl	_strcmp
Ltmp150:
	.loc	1 364 15 is_stmt 0              ; bdf_parser.c:364:15
	cbnz	w0, LBB2_67
; %bb.66:
Ltmp151:
	.loc	1 366 5 is_stmt 1               ; bdf_parser.c:366:5
	b	LBB2_96
Ltmp152:
LBB2_67:
	.loc	1 0 0 is_stmt 0                 ; bdf_parser.c:0:0
	adrp	x0, _bf_parse_line.cmd@PAGE
	add	x0, x0, _bf_parse_line.cmd@PAGEOFF
Ltmp153:
	adrp	x1, l_.str.35@PAGE
	add	x1, x1, l_.str.35@PAGEOFF
	.loc	1 367 15 is_stmt 1              ; bdf_parser.c:367:15
	bl	_strcmp
Ltmp154:
	.loc	1 367 15 is_stmt 0              ; bdf_parser.c:367:15
	cbnz	w0, LBB2_69
; %bb.68:
Ltmp155:
	.loc	1 369 5 is_stmt 1               ; bdf_parser.c:369:5
	b	LBB2_95
Ltmp156:
LBB2_69:
	.loc	1 0 0 is_stmt 0                 ; bdf_parser.c:0:0
	adrp	x0, _bf_parse_line.cmd@PAGE
	add	x0, x0, _bf_parse_line.cmd@PAGEOFF
Ltmp157:
	adrp	x1, l_.str.36@PAGE
	add	x1, x1, l_.str.36@PAGEOFF
	.loc	1 370 15 is_stmt 1              ; bdf_parser.c:370:15
	bl	_strcmp
Ltmp158:
	.loc	1 370 15 is_stmt 0              ; bdf_parser.c:370:15
	cbnz	w0, LBB2_71
; %bb.70:
Ltmp159:
	.loc	1 372 5 is_stmt 1               ; bdf_parser.c:372:5
	b	LBB2_94
Ltmp160:
LBB2_71:
	.loc	1 0 0 is_stmt 0                 ; bdf_parser.c:0:0
	adrp	x0, _bf_parse_line.cmd@PAGE
	add	x0, x0, _bf_parse_line.cmd@PAGEOFF
Ltmp161:
	adrp	x1, l_.str.37@PAGE
	add	x1, x1, l_.str.37@PAGEOFF
	.loc	1 373 15 is_stmt 1              ; bdf_parser.c:373:15
	bl	_strcmp
Ltmp162:
	.loc	1 373 15 is_stmt 0              ; bdf_parser.c:373:15
	cbnz	w0, LBB2_73
; %bb.72:
Ltmp163:
	.loc	1 375 5 is_stmt 1               ; bdf_parser.c:375:5
	b	LBB2_93
Ltmp164:
LBB2_73:
	.loc	1 0 0 is_stmt 0                 ; bdf_parser.c:0:0
	adrp	x0, _bf_parse_line.cmd@PAGE
	add	x0, x0, _bf_parse_line.cmd@PAGEOFF
Ltmp165:
	adrp	x1, l_.str.38@PAGE
	add	x1, x1, l_.str.38@PAGEOFF
	.loc	1 376 15 is_stmt 1              ; bdf_parser.c:376:15
	bl	_strcmp
Ltmp166:
	.loc	1 376 15 is_stmt 0              ; bdf_parser.c:376:15
	cbnz	w0, LBB2_75
; %bb.74:
Ltmp167:
	.loc	1 378 34 is_stmt 1              ; bdf_parser.c:378:34
	ldur	x0, [x29, #-16]
	.loc	1 378 22 is_stmt 0              ; bdf_parser.c:378:22
	bl	_bf_get_long
	.loc	1 378 7                         ; bdf_parser.c:378:7
	ldur	x8, [x29, #-16]
	.loc	1 378 20                        ; bdf_parser.c:378:20
	str	x0, [x8, #1056]
	.loc	1 380 5 is_stmt 1               ; bdf_parser.c:380:5
	b	LBB2_92
Ltmp168:
LBB2_75:
	.loc	1 0 0 is_stmt 0                 ; bdf_parser.c:0:0
	adrp	x0, _bf_parse_line.cmd@PAGE
	add	x0, x0, _bf_parse_line.cmd@PAGEOFF
Ltmp169:
	adrp	x1, l_.str.39@PAGE
	add	x1, x1, l_.str.39@PAGEOFF
	.loc	1 381 15 is_stmt 1              ; bdf_parser.c:381:15
	bl	_strcmp
Ltmp170:
	.loc	1 381 15 is_stmt 0              ; bdf_parser.c:381:15
	cbnz	w0, LBB2_77
; %bb.76:
Ltmp171:
	.loc	1 383 5 is_stmt 1               ; bdf_parser.c:383:5
	b	LBB2_91
Ltmp172:
LBB2_77:
	.loc	1 0 0 is_stmt 0                 ; bdf_parser.c:0:0
	adrp	x0, _bf_parse_line.cmd@PAGE
	add	x0, x0, _bf_parse_line.cmd@PAGEOFF
Ltmp173:
	adrp	x1, l_.str.40@PAGE
	add	x1, x1, l_.str.40@PAGEOFF
	.loc	1 384 15 is_stmt 1              ; bdf_parser.c:384:15
	bl	_strcmp
Ltmp174:
	.loc	1 384 15 is_stmt 0              ; bdf_parser.c:384:15
	cbnz	w0, LBB2_79
; %bb.78:
Ltmp175:
	.loc	1 386 34 is_stmt 1              ; bdf_parser.c:386:34
	ldur	x0, [x29, #-16]
	.loc	1 386 22 is_stmt 0              ; bdf_parser.c:386:22
	bl	_bf_get_long
	.loc	1 386 7                         ; bdf_parser.c:386:7
	ldur	x8, [x29, #-16]
	.loc	1 386 20                        ; bdf_parser.c:386:20
	str	x0, [x8, #1064]
	.loc	1 387 34 is_stmt 1              ; bdf_parser.c:387:34
	ldur	x0, [x29, #-16]
	.loc	1 387 22 is_stmt 0              ; bdf_parser.c:387:22
	bl	_bf_get_long
	.loc	1 387 7                         ; bdf_parser.c:387:7
	ldur	x8, [x29, #-16]
	.loc	1 387 20                        ; bdf_parser.c:387:20
	str	x0, [x8, #1072]
	.loc	1 389 5 is_stmt 1               ; bdf_parser.c:389:5
	b	LBB2_90
Ltmp176:
LBB2_79:
	.loc	1 0 0 is_stmt 0                 ; bdf_parser.c:0:0
	adrp	x0, _bf_parse_line.cmd@PAGE
	add	x0, x0, _bf_parse_line.cmd@PAGEOFF
Ltmp177:
	adrp	x1, l_.str.41@PAGE
	add	x1, x1, l_.str.41@PAGEOFF
	.loc	1 390 15 is_stmt 1              ; bdf_parser.c:390:15
	bl	_strcmp
Ltmp178:
	.loc	1 390 15 is_stmt 0              ; bdf_parser.c:390:15
	cbnz	w0, LBB2_81
; %bb.80:
Ltmp179:
	.loc	1 392 31 is_stmt 1              ; bdf_parser.c:392:31
	ldur	x0, [x29, #-16]
	.loc	1 392 19 is_stmt 0              ; bdf_parser.c:392:19
	bl	_bf_get_long
	.loc	1 392 7                         ; bdf_parser.c:392:7
	ldur	x8, [x29, #-16]
	.loc	1 392 17                        ; bdf_parser.c:392:17
	str	x0, [x8, #1080]
	.loc	1 393 31 is_stmt 1              ; bdf_parser.c:393:31
	ldur	x0, [x29, #-16]
	.loc	1 393 19 is_stmt 0              ; bdf_parser.c:393:19
	bl	_bf_get_long
	.loc	1 393 7                         ; bdf_parser.c:393:7
	ldur	x8, [x29, #-16]
	.loc	1 393 17                        ; bdf_parser.c:393:17
	str	x0, [x8, #1088]
	.loc	1 394 31 is_stmt 1              ; bdf_parser.c:394:31
	ldur	x0, [x29, #-16]
	.loc	1 394 19 is_stmt 0              ; bdf_parser.c:394:19
	bl	_bf_get_long
	.loc	1 394 7                         ; bdf_parser.c:394:7
	ldur	x8, [x29, #-16]
	.loc	1 394 17                        ; bdf_parser.c:394:17
	str	x0, [x8, #1096]
	.loc	1 395 31 is_stmt 1              ; bdf_parser.c:395:31
	ldur	x0, [x29, #-16]
	.loc	1 395 19 is_stmt 0              ; bdf_parser.c:395:19
	bl	_bf_get_long
	.loc	1 395 7                         ; bdf_parser.c:395:7
	ldur	x8, [x29, #-16]
	.loc	1 395 17                        ; bdf_parser.c:395:17
	str	x0, [x8, #1104]
	.loc	1 396 5 is_stmt 1               ; bdf_parser.c:396:5
	b	LBB2_89
Ltmp180:
LBB2_81:
	.loc	1 0 0 is_stmt 0                 ; bdf_parser.c:0:0
	adrp	x0, _bf_parse_line.cmd@PAGE
	add	x0, x0, _bf_parse_line.cmd@PAGEOFF
Ltmp181:
	adrp	x1, l_.str.42@PAGE
	add	x1, x1, l_.str.42@PAGEOFF
	.loc	1 397 15 is_stmt 1              ; bdf_parser.c:397:15
	bl	_strcmp
Ltmp182:
	.loc	1 397 15 is_stmt 0              ; bdf_parser.c:397:15
	cbnz	w0, LBB2_85
; %bb.82:
Ltmp183:
	.loc	1 399 33 is_stmt 1              ; bdf_parser.c:399:33
	ldur	x0, [x29, #-16]
	.loc	1 399 12 is_stmt 0              ; bdf_parser.c:399:12
	bl	_bf_add_glyph_to_list
Ltmp184:
	.loc	1 399 12                        ; bdf_parser.c:399:12
	cbnz	w0, LBB2_84
; %bb.83:
Ltmp185:
	.loc	1 400 2 is_stmt 1               ; bdf_parser.c:400:2
	stur	wzr, [x29, #-4]
	b	LBB2_138
Ltmp186:
LBB2_84:
	.loc	1 401 7                         ; bdf_parser.c:401:7
	ldur	x9, [x29, #-16]
	mov	w8, #1
	.loc	1 401 29 is_stmt 0              ; bdf_parser.c:401:29
	str	w8, [x9, #1052]
	.loc	1 402 5 is_stmt 1               ; bdf_parser.c:402:5
	b	LBB2_88
Ltmp187:
LBB2_85:
	.loc	1 0 0 is_stmt 0                 ; bdf_parser.c:0:0
	adrp	x0, _bf_parse_line.cmd@PAGE
	add	x0, x0, _bf_parse_line.cmd@PAGEOFF
Ltmp188:
	adrp	x1, l_.str.43@PAGE
	add	x1, x1, l_.str.43@PAGEOFF
Ltmp189:
	.loc	1 403 15 is_stmt 1              ; bdf_parser.c:403:15
	bl	_strcmp
Ltmp190:
	.loc	1 403 15 is_stmt 0              ; bdf_parser.c:403:15
	cbnz	w0, LBB2_87
; %bb.86:
Ltmp191:
	.loc	1 405 16 is_stmt 1              ; bdf_parser.c:405:16
	ldur	x0, [x29, #-16]
	.loc	1 0 0 is_stmt 0                 ; bdf_parser.c:0:0
	adrp	x1, l_.str.44@PAGE
	add	x1, x1, l_.str.44@PAGEOFF
	.loc	1 405 7                         ; bdf_parser.c:405:7
	bl	_bf_Error
	.loc	1 406 7 is_stmt 1               ; bdf_parser.c:406:7
	stur	wzr, [x29, #-4]
	b	LBB2_138
Ltmp192:
LBB2_87:
LBB2_88:
LBB2_89:
LBB2_90:
LBB2_91:
LBB2_92:
LBB2_93:
LBB2_94:
LBB2_95:
LBB2_96:
LBB2_97:
LBB2_98:
LBB2_99:
LBB2_100:
LBB2_101:
LBB2_102:
LBB2_103:
LBB2_104:
LBB2_105:
LBB2_106:
LBB2_107:
LBB2_108:
LBB2_109:
LBB2_110:
LBB2_111:
LBB2_112:
LBB2_113:
LBB2_114:
LBB2_115:
LBB2_116:
LBB2_117:
LBB2_118:
LBB2_119:
LBB2_120:
LBB2_121:
LBB2_122:
LBB2_123:
LBB2_124:
LBB2_125:
; %bb.126:
	.loc	1 408 3                         ; bdf_parser.c:408:3
	b	LBB2_137
Ltmp193:
LBB2_127:
	.loc	1 413 5                         ; bdf_parser.c:413:5
	ldur	x0, [x29, #-16]
	bl	_bf_get_string
	mov	x1, x0
	.loc	1 0 0 is_stmt 0                 ; bdf_parser.c:0:0
	adrp	x8, _bf_parse_line.cmd@PAGE
	str	x8, [sp, #8]                    ; 8-byte Folded Spill
	adrp	x0, _bf_parse_line.cmd@PAGE
	add	x0, x0, _bf_parse_line.cmd@PAGEOFF
	mov	x2, #1024
	.loc	1 413 5                         ; bdf_parser.c:413:5
	bl	___strcpy_chk
	ldr	x8, [sp, #8]                    ; 8-byte Folded Reload
Ltmp194:
	.loc	1 414 10 is_stmt 1              ; bdf_parser.c:414:10
	ldrsb	w8, [x8, _bf_parse_line.cmd@PAGEOFF]
Ltmp195:
	.loc	1 414 10 is_stmt 0              ; bdf_parser.c:414:10
	cbz	w8, LBB2_136
; %bb.128:
	.loc	1 0 0                           ; bdf_parser.c:0:0
	adrp	x0, _bf_parse_line.cmd@PAGE
	add	x0, x0, _bf_parse_line.cmd@PAGEOFF
Ltmp196:
	adrp	x1, l_.str.43@PAGE
	add	x1, x1, l_.str.43@PAGEOFF
	.loc	1 416 12 is_stmt 1              ; bdf_parser.c:416:12
	bl	_strcmp
Ltmp197:
	.loc	1 416 12 is_stmt 0              ; bdf_parser.c:416:12
	cbnz	w0, LBB2_130
; %bb.129:
Ltmp198:
	.loc	1 418 2 is_stmt 1               ; bdf_parser.c:418:2
	ldur	x8, [x29, #-16]
	.loc	1 418 24 is_stmt 0              ; bdf_parser.c:418:24
	str	wzr, [x8, #1052]
	.loc	1 420 7 is_stmt 1               ; bdf_parser.c:420:7
	b	LBB2_135
Ltmp199:
LBB2_130:
	.loc	1 423 2                         ; bdf_parser.c:423:2
	ldur	x8, [x29, #-16]
	.loc	1 423 15 is_stmt 0              ; bdf_parser.c:423:15
	str	wzr, [x8, #1048]
	.loc	1 424 15 is_stmt 1              ; bdf_parser.c:424:15
	ldur	x0, [x29, #-16]
	.loc	1 424 2 is_stmt 0               ; bdf_parser.c:424:2
	bl	_bf_skipspace
	.loc	1 427 2 is_stmt 1               ; bdf_parser.c:427:2
	ldur	x8, [x29, #-16]
	.loc	1 427 15 is_stmt 0              ; bdf_parser.c:427:15
	str	wzr, [x8, #1112]
LBB2_131:                               ; =>This Inner Loop Header: Depth=1
Ltmp200:
	.loc	1 432 16 is_stmt 1              ; bdf_parser.c:432:16
	ldur	x0, [x29, #-16]
	.loc	1 432 8 is_stmt 0               ; bdf_parser.c:432:8
	bl	_bf_curr
	.loc	1 432 6                         ; bdf_parser.c:432:6
	stur	w0, [x29, #-20]
Ltmp201:
	.loc	1 433 9 is_stmt 1               ; bdf_parser.c:433:9
	ldur	w8, [x29, #-20]
Ltmp202:
	.loc	1 433 9 is_stmt 0               ; bdf_parser.c:433:9
	subs	w8, w8, #48                     ; =48
	b.ge	LBB2_133
; %bb.132:
Ltmp203:
	.loc	1 434 6 is_stmt 1               ; bdf_parser.c:434:6
	b	LBB2_134
Ltmp204:
LBB2_133:                               ;   in Loop: Header=BB2_131 Depth=1
	.loc	1 435 29                        ; bdf_parser.c:435:29
	ldur	x0, [x29, #-16]
	.loc	1 435 33 is_stmt 0              ; bdf_parser.c:435:33
	ldur	w1, [x29, #-20]
	.loc	1 435 4                         ; bdf_parser.c:435:4
	bl	_bf_set_pixel_by_hex_char
	.loc	1 436 12 is_stmt 1              ; bdf_parser.c:436:12
	ldur	x0, [x29, #-16]
	.loc	1 436 4 is_stmt 0               ; bdf_parser.c:436:4
	bl	_bf_next
Ltmp205:
	.loc	1 430 2 is_stmt 1               ; bdf_parser.c:430:2
	b	LBB2_131
Ltmp206:
LBB2_134:
	.loc	1 439 2                         ; bdf_parser.c:439:2
	ldur	x9, [x29, #-16]
	.loc	1 439 14 is_stmt 0              ; bdf_parser.c:439:14
	ldr	w8, [x9, #1116]
	add	w8, w8, #1                      ; =1
	str	w8, [x9, #1116]
Ltmp207:
LBB2_135:
LBB2_136:
LBB2_137:
	.loc	1 0 14                          ; bdf_parser.c:0:14
	mov	w8, #1
	.loc	1 443 3 is_stmt 1               ; bdf_parser.c:443:3
	stur	w8, [x29, #-4]
LBB2_138:
	.loc	1 444 1                         ; bdf_parser.c:444:1
	ldur	w0, [x29, #-4]
	ldp	x29, x30, [sp, #48]             ; 16-byte Folded Reload
	add	sp, sp, #64                     ; =64
	ret
Ltmp208:
Lfunc_end2:
	.cfi_endproc
                                        ; -- End function
	.p2align	2                               ; -- Begin function bf_skipspace
_bf_skipspace:                          ; @bf_skipspace
Lfunc_begin3:
	.loc	1 25 0                          ; bdf_parser.c:25:0
	.cfi_startproc
; %bb.0:
	sub	sp, sp, #32                     ; =32
	stp	x29, x30, [sp, #16]             ; 16-byte Folded Spill
	add	x29, sp, #16                    ; =16
	.cfi_def_cfa w29, 16
	.cfi_offset w30, -8
	.cfi_offset w29, -16
	str	x0, [sp, #8]
LBB3_1:                                 ; =>This Inner Loop Header: Depth=1
Ltmp209:
	.loc	1 30 17 prologue_end            ; bdf_parser.c:30:17
	ldr	x0, [sp, #8]
	.loc	1 30 9 is_stmt 0                ; bdf_parser.c:30:9
	bl	_bf_curr
	.loc	1 30 7                          ; bdf_parser.c:30:7
	str	w0, [sp, #4]
Ltmp210:
	.loc	1 31 10 is_stmt 1               ; bdf_parser.c:31:10
	ldr	w8, [sp, #4]
Ltmp211:
	.loc	1 31 10 is_stmt 0               ; bdf_parser.c:31:10
	cbnz	w8, LBB3_3
; %bb.2:
Ltmp212:
	.loc	1 32 7 is_stmt 1                ; bdf_parser.c:32:7
	b	LBB3_6
Ltmp213:
LBB3_3:                                 ;   in Loop: Header=BB3_1 Depth=1
	.loc	1 33 10                         ; bdf_parser.c:33:10
	ldr	w8, [sp, #4]
Ltmp214:
	.loc	1 33 10 is_stmt 0               ; bdf_parser.c:33:10
	subs	w8, w8, #32                     ; =32
	b.le	LBB3_5
; %bb.4:
Ltmp215:
	.loc	1 34 7 is_stmt 1                ; bdf_parser.c:34:7
	b	LBB3_6
Ltmp216:
LBB3_5:                                 ;   in Loop: Header=BB3_1 Depth=1
	.loc	1 35 13                         ; bdf_parser.c:35:13
	ldr	x0, [sp, #8]
	.loc	1 35 5 is_stmt 0                ; bdf_parser.c:35:5
	bl	_bf_next
Ltmp217:
	.loc	1 28 3 is_stmt 1                ; bdf_parser.c:28:3
	b	LBB3_1
Ltmp218:
LBB3_6:
	.loc	1 37 1                          ; bdf_parser.c:37:1
	ldp	x29, x30, [sp, #16]             ; 16-byte Folded Reload
	add	sp, sp, #32                     ; =32
	ret
Ltmp219:
Lfunc_end3:
	.cfi_endproc
                                        ; -- End function
	.p2align	2                               ; -- Begin function bf_get_string
_bf_get_string:                         ; @bf_get_string
Lfunc_begin4:
	.loc	1 61 0                          ; bdf_parser.c:61:0
	.cfi_startproc
; %bb.0:
	sub	sp, sp, #48                     ; =48
	stp	x29, x30, [sp, #32]             ; 16-byte Folded Spill
	add	x29, sp, #32                    ; =32
	.cfi_def_cfa w29, 16
	.cfi_offset w30, -8
	.cfi_offset w29, -16
	str	x0, [sp, #16]
Ltmp220:
	.loc	1 63 7 prologue_end             ; bdf_parser.c:63:7
	str	wzr, [sp, #12]
	.loc	1 0 0 is_stmt 0                 ; bdf_parser.c:0:0
	adrp	x8, _bf_get_string.buf@PAGE
	.loc	1 66 10 is_stmt 1               ; bdf_parser.c:66:10
	strb	wzr, [x8, _bf_get_string.buf@PAGEOFF]
Ltmp221:
	.loc	1 68 16                         ; bdf_parser.c:68:16
	ldr	x0, [sp, #16]
	.loc	1 68 8 is_stmt 0                ; bdf_parser.c:68:8
	bl	_bf_curr
Ltmp222:
	.loc	1 68 8                          ; bdf_parser.c:68:8
	subs	w8, w0, #34                     ; =34
	b.eq	LBB4_2
; %bb.1:
Ltmp223:
	.loc	1 69 30 is_stmt 1               ; bdf_parser.c:69:30
	ldr	x0, [sp, #16]
	.loc	1 69 12 is_stmt 0               ; bdf_parser.c:69:12
	bl	_bf_get_identifier
	.loc	1 69 5                          ; bdf_parser.c:69:5
	stur	x0, [x29, #-8]
	b	LBB4_16
Ltmp224:
LBB4_2:
	.loc	1 71 11 is_stmt 1               ; bdf_parser.c:71:11
	ldr	x0, [sp, #16]
	.loc	1 71 3 is_stmt 0                ; bdf_parser.c:71:3
	bl	_bf_next
LBB4_3:                                 ; =>This Inner Loop Header: Depth=1
Ltmp225:
	.loc	1 75 17 is_stmt 1               ; bdf_parser.c:75:17
	ldr	x0, [sp, #16]
	.loc	1 75 9 is_stmt 0                ; bdf_parser.c:75:9
	bl	_bf_curr
	.loc	1 75 7                          ; bdf_parser.c:75:7
	str	w0, [sp, #8]
Ltmp226:
	.loc	1 76 10 is_stmt 1               ; bdf_parser.c:76:10
	ldr	w8, [sp, #8]
Ltmp227:
	.loc	1 76 10 is_stmt 0               ; bdf_parser.c:76:10
	cbnz	w8, LBB4_5
; %bb.4:
Ltmp228:
	.loc	1 77 7 is_stmt 1                ; bdf_parser.c:77:7
	b	LBB4_13
Ltmp229:
LBB4_5:                                 ;   in Loop: Header=BB4_3 Depth=1
	.loc	1 78 10                         ; bdf_parser.c:78:10
	ldr	w8, [sp, #8]
Ltmp230:
	.loc	1 78 10 is_stmt 0               ; bdf_parser.c:78:10
	subs	w8, w8, #34                     ; =34
	b.ne	LBB4_7
; %bb.6:
Ltmp231:
	.loc	1 79 7 is_stmt 1                ; bdf_parser.c:79:7
	b	LBB4_13
Ltmp232:
LBB4_7:                                 ;   in Loop: Header=BB4_3 Depth=1
	.loc	1 80 10                         ; bdf_parser.c:80:10
	ldr	w8, [sp, #12]
Ltmp233:
	.loc	1 80 10 is_stmt 0               ; bdf_parser.c:80:10
	subs	w8, w8, #1022                   ; =1022
	b.lt	LBB4_9
; %bb.8:
Ltmp234:
	.loc	1 81 7 is_stmt 1                ; bdf_parser.c:81:7
	b	LBB4_13
Ltmp235:
LBB4_9:                                 ;   in Loop: Header=BB4_3 Depth=1
	.loc	1 82 10                         ; bdf_parser.c:82:10
	ldr	w8, [sp, #8]
	.loc	1 82 20 is_stmt 0               ; bdf_parser.c:82:20
	subs	w8, w8, #13                     ; =13
	b.eq	LBB4_12
; %bb.10:                               ;   in Loop: Header=BB4_3 Depth=1
	.loc	1 82 23                         ; bdf_parser.c:82:23
	ldr	w8, [sp, #8]
Ltmp236:
	.loc	1 82 10                         ; bdf_parser.c:82:10
	subs	w8, w8, #10                     ; =10
	b.eq	LBB4_12
; %bb.11:                               ;   in Loop: Header=BB4_3 Depth=1
Ltmp237:
	.loc	1 84 18 is_stmt 1               ; bdf_parser.c:84:18
	ldr	w9, [sp, #8]
	.loc	1 84 12 is_stmt 0               ; bdf_parser.c:84:12
	ldrsw	x10, [sp, #12]
Ltmp238:
	.loc	1 82 10 is_stmt 1               ; bdf_parser.c:82:10
	mov	x8, x10
Ltmp239:
	.loc	1 84 12                         ; bdf_parser.c:84:12
	add	w8, w8, #1                      ; =1
	str	w8, [sp, #12]
Ltmp240:
	.loc	1 0 0 is_stmt 0                 ; bdf_parser.c:0:0
	adrp	x8, _bf_get_string.buf@PAGE
	add	x8, x8, _bf_get_string.buf@PAGEOFF
Ltmp241:
	.loc	1 84 7                          ; bdf_parser.c:84:7
	add	x10, x8, x10
	.loc	1 84 16                         ; bdf_parser.c:84:16
	strb	w9, [x10]
	.loc	1 85 11 is_stmt 1               ; bdf_parser.c:85:11
	ldrsw	x9, [sp, #12]
	.loc	1 85 7 is_stmt 0                ; bdf_parser.c:85:7
	add	x8, x8, x9
	.loc	1 85 14                         ; bdf_parser.c:85:14
	strb	wzr, [x8]
Ltmp242:
LBB4_12:                                ;   in Loop: Header=BB4_3 Depth=1
	.loc	1 87 13 is_stmt 1               ; bdf_parser.c:87:13
	ldr	x0, [sp, #16]
	.loc	1 87 5 is_stmt 0                ; bdf_parser.c:87:5
	bl	_bf_next
Ltmp243:
	.loc	1 73 3 is_stmt 1                ; bdf_parser.c:73:3
	b	LBB4_3
Ltmp244:
LBB4_13:
	.loc	1 89 16                         ; bdf_parser.c:89:16
	ldr	x0, [sp, #16]
	.loc	1 89 8 is_stmt 0                ; bdf_parser.c:89:8
	bl	_bf_curr
Ltmp245:
	.loc	1 89 8                          ; bdf_parser.c:89:8
	subs	w8, w0, #34                     ; =34
	b.ne	LBB4_15
; %bb.14:
Ltmp246:
	.loc	1 90 13 is_stmt 1               ; bdf_parser.c:90:13
	ldr	x0, [sp, #16]
	.loc	1 90 5 is_stmt 0                ; bdf_parser.c:90:5
	bl	_bf_next
Ltmp247:
LBB4_15:
	.loc	1 92 16 is_stmt 1               ; bdf_parser.c:92:16
	ldr	x0, [sp, #16]
	.loc	1 92 3 is_stmt 0                ; bdf_parser.c:92:3
	bl	_bf_skipspace
	.loc	1 0 0                           ; bdf_parser.c:0:0
	adrp	x8, _bf_get_string.buf@PAGE
	add	x8, x8, _bf_get_string.buf@PAGEOFF
	.loc	1 93 3 is_stmt 1                ; bdf_parser.c:93:3
	stur	x8, [x29, #-8]
LBB4_16:
	.loc	1 94 1                          ; bdf_parser.c:94:1
	ldur	x0, [x29, #-8]
	ldp	x29, x30, [sp, #32]             ; 16-byte Folded Reload
	add	sp, sp, #48                     ; =48
	ret
Ltmp248:
Lfunc_end4:
	.cfi_endproc
                                        ; -- End function
	.p2align	2                               ; -- Begin function bf_get_eol_string
_bf_get_eol_string:                     ; @bf_get_eol_string
Lfunc_begin5:
	.loc	1 97 0                          ; bdf_parser.c:97:0
	.cfi_startproc
; %bb.0:
	sub	sp, sp, #48                     ; =48
	stp	x29, x30, [sp, #32]             ; 16-byte Folded Spill
	add	x29, sp, #32                    ; =32
	.cfi_def_cfa w29, 16
	.cfi_offset w30, -8
	.cfi_offset w29, -16
	str	x0, [sp, #16]
Ltmp249:
	.loc	1 99 7 prologue_end             ; bdf_parser.c:99:7
	str	wzr, [sp, #12]
	.loc	1 0 0 is_stmt 0                 ; bdf_parser.c:0:0
	adrp	x8, _bf_get_eol_string.buf@PAGE
	.loc	1 102 10 is_stmt 1              ; bdf_parser.c:102:10
	strb	wzr, [x8, _bf_get_eol_string.buf@PAGEOFF]
Ltmp250:
	.loc	1 104 16                        ; bdf_parser.c:104:16
	ldr	x0, [sp, #16]
	.loc	1 104 8 is_stmt 0               ; bdf_parser.c:104:8
	bl	_bf_curr
Ltmp251:
	.loc	1 104 8                         ; bdf_parser.c:104:8
	subs	w8, w0, #34                     ; =34
	b.ne	LBB5_2
; %bb.1:
Ltmp252:
	.loc	1 105 26 is_stmt 1              ; bdf_parser.c:105:26
	ldr	x0, [sp, #16]
	.loc	1 105 12 is_stmt 0              ; bdf_parser.c:105:12
	bl	_bf_get_string
	.loc	1 105 5                         ; bdf_parser.c:105:5
	stur	x0, [x29, #-8]
	b	LBB5_12
Ltmp253:
LBB5_2:
LBB5_3:                                 ; =>This Inner Loop Header: Depth=1
	.loc	1 110 17 is_stmt 1              ; bdf_parser.c:110:17
	ldr	x0, [sp, #16]
	.loc	1 110 9 is_stmt 0               ; bdf_parser.c:110:9
	bl	_bf_curr
	.loc	1 110 7                         ; bdf_parser.c:110:7
	str	w0, [sp, #8]
Ltmp254:
	.loc	1 111 10 is_stmt 1              ; bdf_parser.c:111:10
	ldr	w8, [sp, #8]
Ltmp255:
	.loc	1 111 10 is_stmt 0              ; bdf_parser.c:111:10
	cbnz	w8, LBB5_5
; %bb.4:
Ltmp256:
	.loc	1 112 7 is_stmt 1               ; bdf_parser.c:112:7
	b	LBB5_11
Ltmp257:
LBB5_5:                                 ;   in Loop: Header=BB5_3 Depth=1
	.loc	1 113 10                        ; bdf_parser.c:113:10
	ldr	w8, [sp, #8]
	.loc	1 113 20 is_stmt 0              ; bdf_parser.c:113:20
	subs	w8, w8, #10                     ; =10
	b.eq	LBB5_7
; %bb.6:                                ;   in Loop: Header=BB5_3 Depth=1
	.loc	1 113 23                        ; bdf_parser.c:113:23
	ldr	w8, [sp, #8]
Ltmp258:
	.loc	1 113 10                        ; bdf_parser.c:113:10
	subs	w8, w8, #13                     ; =13
	b.ne	LBB5_8
LBB5_7:
Ltmp259:
	.loc	1 114 7 is_stmt 1               ; bdf_parser.c:114:7
	b	LBB5_11
Ltmp260:
LBB5_8:                                 ;   in Loop: Header=BB5_3 Depth=1
	.loc	1 115 10                        ; bdf_parser.c:115:10
	ldr	w8, [sp, #12]
Ltmp261:
	.loc	1 115 10 is_stmt 0              ; bdf_parser.c:115:10
	subs	w8, w8, #1022                   ; =1022
	b.lt	LBB5_10
; %bb.9:
Ltmp262:
	.loc	1 116 7 is_stmt 1               ; bdf_parser.c:116:7
	b	LBB5_11
Ltmp263:
LBB5_10:                                ;   in Loop: Header=BB5_3 Depth=1
	.loc	1 117 16                        ; bdf_parser.c:117:16
	ldr	w9, [sp, #8]
	.loc	1 117 10 is_stmt 0              ; bdf_parser.c:117:10
	ldrsw	x10, [sp, #12]
	.loc	1 115 10 is_stmt 1              ; bdf_parser.c:115:10
	mov	x8, x10
	.loc	1 117 10                        ; bdf_parser.c:117:10
	add	w8, w8, #1                      ; =1
	str	w8, [sp, #12]
Ltmp264:
	.loc	1 0 0 is_stmt 0                 ; bdf_parser.c:0:0
	adrp	x8, _bf_get_eol_string.buf@PAGE
	add	x8, x8, _bf_get_eol_string.buf@PAGEOFF
Ltmp265:
	.loc	1 117 5                         ; bdf_parser.c:117:5
	add	x10, x8, x10
	.loc	1 117 14                        ; bdf_parser.c:117:14
	strb	w9, [x10]
	.loc	1 118 9 is_stmt 1               ; bdf_parser.c:118:9
	ldrsw	x9, [sp, #12]
	.loc	1 118 5 is_stmt 0               ; bdf_parser.c:118:5
	add	x8, x8, x9
	.loc	1 118 12                        ; bdf_parser.c:118:12
	strb	wzr, [x8]
	.loc	1 119 13 is_stmt 1              ; bdf_parser.c:119:13
	ldr	x0, [sp, #16]
	.loc	1 119 5 is_stmt 0               ; bdf_parser.c:119:5
	bl	_bf_next
Ltmp266:
	.loc	1 108 3 is_stmt 1               ; bdf_parser.c:108:3
	b	LBB5_3
Ltmp267:
LBB5_11:
	.loc	1 122 16                        ; bdf_parser.c:122:16
	ldr	x0, [sp, #16]
	.loc	1 122 3 is_stmt 0               ; bdf_parser.c:122:3
	bl	_bf_skipspace
	.loc	1 0 0                           ; bdf_parser.c:0:0
	adrp	x8, _bf_get_eol_string.buf@PAGE
	add	x8, x8, _bf_get_eol_string.buf@PAGEOFF
	.loc	1 123 3 is_stmt 1               ; bdf_parser.c:123:3
	stur	x8, [x29, #-8]
LBB5_12:
	.loc	1 124 1                         ; bdf_parser.c:124:1
	ldur	x0, [x29, #-8]
	ldp	x29, x30, [sp, #32]             ; 16-byte Folded Reload
	add	sp, sp, #48                     ; =48
	ret
Ltmp268:
Lfunc_end5:
	.cfi_endproc
                                        ; -- End function
	.p2align	2                               ; -- Begin function bf_get_long
_bf_get_long:                           ; @bf_get_long
Lfunc_begin6:
	.loc	1 127 0                         ; bdf_parser.c:127:0
	.cfi_startproc
; %bb.0:
	sub	sp, sp, #48                     ; =48
	stp	x29, x30, [sp, #32]             ; 16-byte Folded Spill
	add	x29, sp, #32                    ; =32
	.cfi_def_cfa w29, 16
	.cfi_offset w30, -8
	.cfi_offset w29, -16
	stur	x0, [x29, #-8]
Ltmp269:
	.loc	1 129 8 prologue_end            ; bdf_parser.c:129:8
	str	xzr, [sp, #8]
	mov	x8, #1
	.loc	1 130 8                         ; bdf_parser.c:130:8
	str	x8, [sp]
Ltmp270:
	.loc	1 132 16                        ; bdf_parser.c:132:16
	ldur	x0, [x29, #-8]
	.loc	1 132 8 is_stmt 0               ; bdf_parser.c:132:8
	bl	_bf_curr
Ltmp271:
	.loc	1 132 8                         ; bdf_parser.c:132:8
	subs	w8, w0, #45                     ; =45
	b.ne	LBB6_2
; %bb.1:
	.loc	1 0 8                           ; bdf_parser.c:0:8
	mov	x8, #-1
Ltmp272:
	.loc	1 134 10 is_stmt 1              ; bdf_parser.c:134:10
	str	x8, [sp]
	.loc	1 135 13                        ; bdf_parser.c:135:13
	ldur	x0, [x29, #-8]
	.loc	1 135 5 is_stmt 0               ; bdf_parser.c:135:5
	bl	_bf_next
	.loc	1 136 18 is_stmt 1              ; bdf_parser.c:136:18
	ldur	x0, [x29, #-8]
	.loc	1 136 5 is_stmt 0               ; bdf_parser.c:136:5
	bl	_bf_skipspace
Ltmp273:
LBB6_2:
LBB6_3:                                 ; =>This Inner Loop Header: Depth=1
	.loc	1 141 17 is_stmt 1              ; bdf_parser.c:141:17
	ldur	x0, [x29, #-8]
	.loc	1 141 9 is_stmt 0               ; bdf_parser.c:141:9
	bl	_bf_curr
	.loc	1 141 7                         ; bdf_parser.c:141:7
	stur	w0, [x29, #-12]
Ltmp274:
	.loc	1 142 10 is_stmt 1              ; bdf_parser.c:142:10
	ldur	w8, [x29, #-12]
Ltmp275:
	.loc	1 142 10 is_stmt 0              ; bdf_parser.c:142:10
	subs	w8, w8, #48                     ; =48
	b.ge	LBB6_5
; %bb.4:
Ltmp276:
	.loc	1 143 7 is_stmt 1               ; bdf_parser.c:143:7
	b	LBB6_8
Ltmp277:
LBB6_5:                                 ;   in Loop: Header=BB6_3 Depth=1
	.loc	1 144 10                        ; bdf_parser.c:144:10
	ldur	w8, [x29, #-12]
Ltmp278:
	.loc	1 144 10 is_stmt 0              ; bdf_parser.c:144:10
	subs	w8, w8, #57                     ; =57
	b.le	LBB6_7
; %bb.6:
Ltmp279:
	.loc	1 145 7 is_stmt 1               ; bdf_parser.c:145:7
	b	LBB6_8
Ltmp280:
LBB6_7:                                 ;   in Loop: Header=BB6_3 Depth=1
	.loc	1 146 7                         ; bdf_parser.c:146:7
	ldr	x8, [sp, #8]
	mov	x9, #10
	mul	x8, x8, x9
	str	x8, [sp, #8]
	.loc	1 147 17                        ; bdf_parser.c:147:17
	ldur	w8, [x29, #-12]
	.loc	1 147 18 is_stmt 0              ; bdf_parser.c:147:18
	subs	w9, w8, #48                     ; =48
	.loc	1 147 7                         ; bdf_parser.c:147:7
	ldr	x8, [sp, #8]
	add	x8, x8, w9, sxtw
	str	x8, [sp, #8]
	.loc	1 148 13 is_stmt 1              ; bdf_parser.c:148:13
	ldur	x0, [x29, #-8]
	.loc	1 148 5 is_stmt 0               ; bdf_parser.c:148:5
	bl	_bf_next
Ltmp281:
	.loc	1 139 3 is_stmt 1               ; bdf_parser.c:139:3
	b	LBB6_3
Ltmp282:
LBB6_8:
	.loc	1 150 16                        ; bdf_parser.c:150:16
	ldur	x0, [x29, #-8]
	.loc	1 150 3 is_stmt 0               ; bdf_parser.c:150:3
	bl	_bf_skipspace
	.loc	1 152 10 is_stmt 1              ; bdf_parser.c:152:10
	ldr	x8, [sp, #8]
	.loc	1 152 12 is_stmt 0              ; bdf_parser.c:152:12
	ldr	x9, [sp]
	.loc	1 152 11                        ; bdf_parser.c:152:11
	mul	x0, x8, x9
	.loc	1 152 3                         ; bdf_parser.c:152:3
	ldp	x29, x30, [sp, #32]             ; 16-byte Folded Reload
	add	sp, sp, #48                     ; =48
	ret
Ltmp283:
Lfunc_end6:
	.cfi_endproc
                                        ; -- End function
	.p2align	2                               ; -- Begin function bf_add_glyph_to_list
_bf_add_glyph_to_list:                  ; @bf_add_glyph_to_list
Lfunc_begin7:
	.loc	1 185 0 is_stmt 1               ; bdf_parser.c:185:0
	.cfi_startproc
; %bb.0:
	sub	sp, sp, #48                     ; =48
	stp	x29, x30, [sp, #32]             ; 16-byte Folded Spill
	add	x29, sp, #32                    ; =32
	.cfi_def_cfa w29, 16
	.cfi_offset w30, -8
	.cfi_offset w29, -16
	str	x0, [sp, #16]
Ltmp284:
	.loc	1 187 31 prologue_end           ; bdf_parser.c:187:31
	ldr	x0, [sp, #16]
	.loc	1 187 19 is_stmt 0              ; bdf_parser.c:187:19
	bl	_bf_AddGlyph
	.loc	1 187 3                         ; bdf_parser.c:187:3
	ldr	x8, [sp, #16]
	.loc	1 187 17                        ; bdf_parser.c:187:17
	str	w0, [x8, #1120]
Ltmp285:
	.loc	1 188 8 is_stmt 1               ; bdf_parser.c:188:8
	ldr	x8, [sp, #16]
	.loc	1 188 12 is_stmt 0              ; bdf_parser.c:188:12
	ldr	w8, [x8, #1120]
Ltmp286:
	.loc	1 188 8                         ; bdf_parser.c:188:8
	subs	w8, w8, #0                      ; =0
	b.ge	LBB7_2
; %bb.1:
Ltmp287:
	.loc	1 190 14 is_stmt 1              ; bdf_parser.c:190:14
	ldr	x0, [sp, #16]
	.loc	1 0 0 is_stmt 0                 ; bdf_parser.c:0:0
	adrp	x1, l_.str.45@PAGE
	add	x1, x1, l_.str.45@PAGEOFF
	.loc	1 190 5                         ; bdf_parser.c:190:5
	bl	_bf_Error
	.loc	1 191 5 is_stmt 1               ; bdf_parser.c:191:5
	stur	wzr, [x29, #-4]
	b	LBB7_5
Ltmp288:
LBB7_2:
	.loc	1 194 8                         ; bdf_parser.c:194:8
	ldr	x8, [sp, #16]
	.loc	1 194 12 is_stmt 0              ; bdf_parser.c:194:12
	ldr	x8, [x8, #8]
	.loc	1 194 23                        ; bdf_parser.c:194:23
	ldr	x9, [sp, #16]
	.loc	1 194 27                        ; bdf_parser.c:194:27
	ldrsw	x9, [x9, #1120]
	.loc	1 194 8                         ; bdf_parser.c:194:8
	ldr	x8, [x8, x9, lsl #3]
	.loc	1 194 6                         ; bdf_parser.c:194:6
	str	x8, [sp, #8]
	.loc	1 197 18 is_stmt 1              ; bdf_parser.c:197:18
	ldr	x8, [sp, #16]
	.loc	1 197 22 is_stmt 0              ; bdf_parser.c:197:22
	ldr	x8, [x8, #1056]
	.loc	1 197 3                         ; bdf_parser.c:197:3
	ldr	x9, [sp, #8]
	.loc	1 197 16                        ; bdf_parser.c:197:16
	str	x8, [x9, #8]
	.loc	1 198 18 is_stmt 1              ; bdf_parser.c:198:18
	ldr	x8, [sp, #16]
	.loc	1 198 22 is_stmt 0              ; bdf_parser.c:198:22
	ldr	x8, [x8, #1064]
	.loc	1 198 3                         ; bdf_parser.c:198:3
	ldr	x9, [sp, #8]
	.loc	1 198 16                        ; bdf_parser.c:198:16
	str	x8, [x9, #24]
	.loc	1 199 18 is_stmt 1              ; bdf_parser.c:199:18
	ldr	x8, [sp, #16]
	.loc	1 199 22 is_stmt 0              ; bdf_parser.c:199:22
	ldr	x8, [x8, #1072]
	.loc	1 199 3                         ; bdf_parser.c:199:3
	ldr	x9, [sp, #8]
	.loc	1 199 16                        ; bdf_parser.c:199:16
	str	x8, [x9, #32]
	.loc	1 200 15 is_stmt 1              ; bdf_parser.c:200:15
	ldr	x8, [sp, #16]
	.loc	1 200 19 is_stmt 0              ; bdf_parser.c:200:19
	ldr	x8, [x8, #1080]
	.loc	1 200 3                         ; bdf_parser.c:200:3
	ldr	x9, [sp, #8]
	.loc	1 200 13                        ; bdf_parser.c:200:13
	str	x8, [x9, #40]
	.loc	1 201 15 is_stmt 1              ; bdf_parser.c:201:15
	ldr	x8, [sp, #16]
	.loc	1 201 19 is_stmt 0              ; bdf_parser.c:201:19
	ldr	x8, [x8, #1088]
	.loc	1 201 3                         ; bdf_parser.c:201:3
	ldr	x9, [sp, #8]
	.loc	1 201 13                        ; bdf_parser.c:201:13
	str	x8, [x9, #48]
	.loc	1 202 15 is_stmt 1              ; bdf_parser.c:202:15
	ldr	x8, [sp, #16]
	.loc	1 202 19 is_stmt 0              ; bdf_parser.c:202:19
	ldr	x8, [x8, #1096]
	.loc	1 202 3                         ; bdf_parser.c:202:3
	ldr	x9, [sp, #8]
	.loc	1 202 13                        ; bdf_parser.c:202:13
	str	x8, [x9, #56]
	.loc	1 203 15 is_stmt 1              ; bdf_parser.c:203:15
	ldr	x8, [sp, #16]
	.loc	1 203 19 is_stmt 0              ; bdf_parser.c:203:19
	ldr	x8, [x8, #1104]
	.loc	1 203 3                         ; bdf_parser.c:203:3
	ldr	x9, [sp, #8]
	.loc	1 203 13                        ; bdf_parser.c:203:13
	str	x8, [x9, #64]
Ltmp289:
	.loc	1 205 25 is_stmt 1              ; bdf_parser.c:205:25
	ldr	x0, [sp, #8]
	.loc	1 205 29 is_stmt 0              ; bdf_parser.c:205:29
	ldr	x8, [sp, #16]
	.loc	1 205 33                        ; bdf_parser.c:205:33
	ldr	x8, [x8, #1080]
	.loc	1 205 29                        ; bdf_parser.c:205:29
	mov	x1, x8
	.loc	1 205 40                        ; bdf_parser.c:205:40
	ldr	x8, [sp, #16]
	.loc	1 205 44                        ; bdf_parser.c:205:44
	ldr	x8, [x8, #1088]
	.loc	1 205 40                        ; bdf_parser.c:205:40
	mov	x2, x8
	.loc	1 205 8                         ; bdf_parser.c:205:8
	bl	_bg_SetBitmapSize
Ltmp290:
	.loc	1 205 8                         ; bdf_parser.c:205:8
	cbnz	w0, LBB7_4
; %bb.3:
Ltmp291:
	.loc	1 207 14 is_stmt 1              ; bdf_parser.c:207:14
	ldr	x0, [sp, #16]
	.loc	1 0 0 is_stmt 0                 ; bdf_parser.c:0:0
	adrp	x1, l_.str.46@PAGE
	add	x1, x1, l_.str.46@PAGEOFF
	.loc	1 207 5                         ; bdf_parser.c:207:5
	bl	_bf_Error
	.loc	1 208 5 is_stmt 1               ; bdf_parser.c:208:5
	stur	wzr, [x29, #-4]
	b	LBB7_5
Ltmp292:
LBB7_4:
	.loc	1 211 22                        ; bdf_parser.c:211:22
	ldr	x8, [sp, #16]
	.loc	1 211 26 is_stmt 0              ; bdf_parser.c:211:26
	ldr	x8, [x8, #1080]
                                        ; kill: def $w8 killed $w8 killed $x8
	.loc	1 211 3                         ; bdf_parser.c:211:3
	ldr	x9, [sp, #8]
	.loc	1 211 20                        ; bdf_parser.c:211:20
	str	w8, [x9, #96]
	.loc	1 212 23 is_stmt 1              ; bdf_parser.c:212:23
	ldr	x8, [sp, #16]
	.loc	1 212 27 is_stmt 0              ; bdf_parser.c:212:27
	ldr	x8, [x8, #1088]
                                        ; kill: def $w8 killed $w8 killed $x8
	.loc	1 212 3                         ; bdf_parser.c:212:3
	ldr	x9, [sp, #8]
	.loc	1 212 21                        ; bdf_parser.c:212:21
	str	w8, [x9, #100]
	mov	w8, #1
	.loc	1 220 3 is_stmt 1               ; bdf_parser.c:220:3
	stur	w8, [x29, #-4]
LBB7_5:
	.loc	1 221 1                         ; bdf_parser.c:221:1
	ldur	w0, [x29, #-4]
	ldp	x29, x30, [sp, #32]             ; 16-byte Folded Reload
	add	sp, sp, #48                     ; =48
	ret
Ltmp293:
Lfunc_end7:
	.cfi_endproc
                                        ; -- End function
	.p2align	2                               ; -- Begin function bf_curr
_bf_curr:                               ; @bf_curr
Lfunc_begin8:
	.loc	1 9 0                           ; bdf_parser.c:9:0
	.cfi_startproc
; %bb.0:
	sub	sp, sp, #16                     ; =16
	.cfi_def_cfa_offset 16
	str	x0, [sp]
Ltmp295:
	.loc	1 10 8 prologue_end             ; bdf_parser.c:10:8
	ldr	x8, [sp]
	.loc	1 10 12 is_stmt 0               ; bdf_parser.c:10:12
	ldr	w8, [x8, #1048]
Ltmp296:
	.loc	1 10 8                          ; bdf_parser.c:10:8
	subs	w8, w8, #1024                   ; =1024
	b.lt	LBB8_2
; %bb.1:
Ltmp297:
	.loc	1 11 5 is_stmt 1                ; bdf_parser.c:11:5
	str	wzr, [sp, #12]
	b	LBB8_3
Ltmp298:
LBB8_2:
	.loc	1 12 10                         ; bdf_parser.c:12:10
	ldr	x8, [sp]
	.loc	1 12 14 is_stmt 0               ; bdf_parser.c:12:14
	add	x8, x8, #24                     ; =24
	.loc	1 12 23                         ; bdf_parser.c:12:23
	ldr	x9, [sp]
	.loc	1 12 27                         ; bdf_parser.c:12:27
	ldrsw	x9, [x9, #1048]
	.loc	1 12 10                         ; bdf_parser.c:12:10
	ldrsb	w8, [x8, x9]
	.loc	1 12 3                          ; bdf_parser.c:12:3
	str	w8, [sp, #12]
LBB8_3:
	.loc	1 13 1 is_stmt 1                ; bdf_parser.c:13:1
	ldr	w0, [sp, #12]
	add	sp, sp, #16                     ; =16
	ret
Ltmp299:
Lfunc_end8:
	.cfi_endproc
                                        ; -- End function
	.p2align	2                               ; -- Begin function bf_set_pixel_by_hex_char
_bf_set_pixel_by_hex_char:              ; @bf_set_pixel_by_hex_char
Lfunc_begin9:
	.loc	1 244 0                         ; bdf_parser.c:244:0
	.cfi_startproc
; %bb.0:
	sub	sp, sp, #32                     ; =32
	stp	x29, x30, [sp, #16]             ; 16-byte Folded Spill
	add	x29, sp, #16                    ; =16
	.cfi_def_cfa w29, 16
	.cfi_offset w30, -8
	.cfi_offset w29, -16
	str	x0, [sp, #8]
	str	w1, [sp, #4]
Ltmp300:
	.loc	1 245 8 prologue_end            ; bdf_parser.c:245:8
	ldr	w8, [sp, #4]
	.loc	1 245 19 is_stmt 0              ; bdf_parser.c:245:19
	subs	w8, w8, #48                     ; =48
	b.lt	LBB9_3
; %bb.1:
	.loc	1 245 22                        ; bdf_parser.c:245:22
	ldr	w8, [sp, #4]
Ltmp301:
	.loc	1 245 8                         ; bdf_parser.c:245:8
	subs	w8, w8, #57                     ; =57
	b.gt	LBB9_3
; %bb.2:
Ltmp302:
	.loc	1 246 37 is_stmt 1              ; bdf_parser.c:246:37
	ldr	x0, [sp, #8]
	.loc	1 246 41 is_stmt 0              ; bdf_parser.c:246:41
	ldr	w8, [sp, #4]
	.loc	1 246 44                        ; bdf_parser.c:246:44
	subs	w1, w8, #48                     ; =48
	.loc	1 246 12                        ; bdf_parser.c:246:12
	bl	_bf_set_pixel_by_halfbyte
	.loc	1 246 5                         ; bdf_parser.c:246:5
	b	LBB9_10
Ltmp303:
LBB9_3:
	.loc	1 247 8 is_stmt 1               ; bdf_parser.c:247:8
	ldr	w8, [sp, #4]
	.loc	1 247 19 is_stmt 0              ; bdf_parser.c:247:19
	subs	w8, w8, #97                     ; =97
	b.lt	LBB9_6
; %bb.4:
	.loc	1 247 22                        ; bdf_parser.c:247:22
	ldr	w8, [sp, #4]
Ltmp304:
	.loc	1 247 8                         ; bdf_parser.c:247:8
	subs	w8, w8, #102                    ; =102
	b.gt	LBB9_6
; %bb.5:
Ltmp305:
	.loc	1 248 37 is_stmt 1              ; bdf_parser.c:248:37
	ldr	x0, [sp, #8]
	.loc	1 248 41 is_stmt 0              ; bdf_parser.c:248:41
	ldr	w8, [sp, #4]
	.loc	1 248 44                        ; bdf_parser.c:248:44
	subs	w8, w8, #97                     ; =97
	.loc	1 248 48                        ; bdf_parser.c:248:48
	add	w1, w8, #10                     ; =10
	.loc	1 248 12                        ; bdf_parser.c:248:12
	bl	_bf_set_pixel_by_halfbyte
	.loc	1 248 5                         ; bdf_parser.c:248:5
	b	LBB9_10
Ltmp306:
LBB9_6:
	.loc	1 249 8 is_stmt 1               ; bdf_parser.c:249:8
	ldr	w8, [sp, #4]
	.loc	1 249 19 is_stmt 0              ; bdf_parser.c:249:19
	subs	w8, w8, #65                     ; =65
	b.lt	LBB9_9
; %bb.7:
	.loc	1 249 22                        ; bdf_parser.c:249:22
	ldr	w8, [sp, #4]
Ltmp307:
	.loc	1 249 8                         ; bdf_parser.c:249:8
	subs	w8, w8, #70                     ; =70
	b.gt	LBB9_9
; %bb.8:
Ltmp308:
	.loc	1 250 37 is_stmt 1              ; bdf_parser.c:250:37
	ldr	x0, [sp, #8]
	.loc	1 250 41 is_stmt 0              ; bdf_parser.c:250:41
	ldr	w8, [sp, #4]
	.loc	1 250 44                        ; bdf_parser.c:250:44
	subs	w8, w8, #65                     ; =65
	.loc	1 250 48                        ; bdf_parser.c:250:48
	add	w1, w8, #10                     ; =10
	.loc	1 250 12                        ; bdf_parser.c:250:12
	bl	_bf_set_pixel_by_halfbyte
	.loc	1 250 5                         ; bdf_parser.c:250:5
	b	LBB9_10
Ltmp309:
LBB9_9:
	.loc	1 251 35 is_stmt 1              ; bdf_parser.c:251:35
	ldr	x0, [sp, #8]
	mov	w1, #0
	.loc	1 251 10 is_stmt 0              ; bdf_parser.c:251:10
	bl	_bf_set_pixel_by_halfbyte
LBB9_10:
	.loc	1 252 1 is_stmt 1               ; bdf_parser.c:252:1
	ldp	x29, x30, [sp, #16]             ; 16-byte Folded Reload
	add	sp, sp, #32                     ; =32
	ret
Ltmp310:
Lfunc_end9:
	.cfi_endproc
                                        ; -- End function
	.p2align	2                               ; -- Begin function bf_next
_bf_next:                               ; @bf_next
Lfunc_begin10:
	.loc	1 16 0                          ; bdf_parser.c:16:0
	.cfi_startproc
; %bb.0:
	sub	sp, sp, #32                     ; =32
	stp	x29, x30, [sp, #16]             ; 16-byte Folded Spill
	add	x29, sp, #16                    ; =16
	.cfi_def_cfa w29, 16
	.cfi_offset w30, -8
	.cfi_offset w29, -16
	str	x0, [sp, #8]
Ltmp311:
	.loc	1 17 16 prologue_end            ; bdf_parser.c:17:16
	ldr	x0, [sp, #8]
	.loc	1 17 8 is_stmt 0                ; bdf_parser.c:17:8
	bl	_bf_curr
Ltmp312:
	.loc	1 17 8                          ; bdf_parser.c:17:8
	cbnz	w0, LBB10_2
; %bb.1:
Ltmp313:
	.loc	1 18 5 is_stmt 1                ; bdf_parser.c:18:5
	b	LBB10_5
Ltmp314:
LBB10_2:
	.loc	1 19 8                          ; bdf_parser.c:19:8
	ldr	x8, [sp, #8]
	.loc	1 19 12 is_stmt 0               ; bdf_parser.c:19:12
	ldr	w8, [x8, #1048]
Ltmp315:
	.loc	1 19 8                          ; bdf_parser.c:19:8
	subs	w8, w8, #1024                   ; =1024
	b.lt	LBB10_4
; %bb.3:
Ltmp316:
	.loc	1 20 5 is_stmt 1                ; bdf_parser.c:20:5
	b	LBB10_5
Ltmp317:
LBB10_4:
	.loc	1 21 3                          ; bdf_parser.c:21:3
	ldr	x9, [sp, #8]
	.loc	1 21 15 is_stmt 0               ; bdf_parser.c:21:15
	ldr	w8, [x9, #1048]
	add	w8, w8, #1                      ; =1
	str	w8, [x9, #1048]
LBB10_5:
	.loc	1 22 1 is_stmt 1                ; bdf_parser.c:22:1
	ldp	x29, x30, [sp, #16]             ; 16-byte Folded Reload
	add	sp, sp, #32                     ; =32
	ret
Ltmp318:
Lfunc_end10:
	.cfi_endproc
                                        ; -- End function
	.p2align	2                               ; -- Begin function bf_get_identifier
_bf_get_identifier:                     ; @bf_get_identifier
Lfunc_begin11:
	.loc	1 40 0                          ; bdf_parser.c:40:0
	.cfi_startproc
; %bb.0:
	sub	sp, sp, #32                     ; =32
	stp	x29, x30, [sp, #16]             ; 16-byte Folded Spill
	add	x29, sp, #16                    ; =16
	.cfi_def_cfa w29, 16
	.cfi_offset w30, -8
	.cfi_offset w29, -16
	str	x0, [sp, #8]
Ltmp319:
	.loc	1 43 7 prologue_end             ; bdf_parser.c:43:7
	str	wzr, [sp]
	.loc	1 0 0 is_stmt 0                 ; bdf_parser.c:0:0
	adrp	x8, _bf_get_identifier.buf@PAGE
	.loc	1 44 10 is_stmt 1               ; bdf_parser.c:44:10
	strb	wzr, [x8, _bf_get_identifier.buf@PAGEOFF]
LBB11_1:                                ; =>This Inner Loop Header: Depth=1
Ltmp320:
	.loc	1 47 17                         ; bdf_parser.c:47:17
	ldr	x0, [sp, #8]
	.loc	1 47 9 is_stmt 0                ; bdf_parser.c:47:9
	bl	_bf_curr
	.loc	1 47 7                          ; bdf_parser.c:47:7
	str	w0, [sp, #4]
Ltmp321:
	.loc	1 48 10 is_stmt 1               ; bdf_parser.c:48:10
	ldr	w8, [sp, #4]
Ltmp322:
	.loc	1 48 10 is_stmt 0               ; bdf_parser.c:48:10
	subs	w8, w8, #32                     ; =32
	b.gt	LBB11_3
; %bb.2:
Ltmp323:
	.loc	1 49 7 is_stmt 1                ; bdf_parser.c:49:7
	b	LBB11_6
Ltmp324:
LBB11_3:                                ;   in Loop: Header=BB11_1 Depth=1
	.loc	1 50 10                         ; bdf_parser.c:50:10
	ldr	w8, [sp]
Ltmp325:
	.loc	1 50 10 is_stmt 0               ; bdf_parser.c:50:10
	subs	w8, w8, #1022                   ; =1022
	b.lt	LBB11_5
; %bb.4:
Ltmp326:
	.loc	1 51 7 is_stmt 1                ; bdf_parser.c:51:7
	b	LBB11_6
Ltmp327:
LBB11_5:                                ;   in Loop: Header=BB11_1 Depth=1
	.loc	1 52 16                         ; bdf_parser.c:52:16
	ldr	w9, [sp, #4]
	.loc	1 52 10 is_stmt 0               ; bdf_parser.c:52:10
	ldrsw	x10, [sp]
	.loc	1 50 10 is_stmt 1               ; bdf_parser.c:50:10
	mov	x8, x10
	.loc	1 52 10                         ; bdf_parser.c:52:10
	add	w8, w8, #1                      ; =1
	str	w8, [sp]
Ltmp328:
	.loc	1 0 0 is_stmt 0                 ; bdf_parser.c:0:0
	adrp	x8, _bf_get_identifier.buf@PAGE
	add	x8, x8, _bf_get_identifier.buf@PAGEOFF
Ltmp329:
	.loc	1 52 5                          ; bdf_parser.c:52:5
	add	x10, x8, x10
	.loc	1 52 14                         ; bdf_parser.c:52:14
	strb	w9, [x10]
	.loc	1 53 9 is_stmt 1                ; bdf_parser.c:53:9
	ldrsw	x9, [sp]
	.loc	1 53 5 is_stmt 0                ; bdf_parser.c:53:5
	add	x8, x8, x9
	.loc	1 53 12                         ; bdf_parser.c:53:12
	strb	wzr, [x8]
	.loc	1 54 13 is_stmt 1               ; bdf_parser.c:54:13
	ldr	x0, [sp, #8]
	.loc	1 54 5 is_stmt 0                ; bdf_parser.c:54:5
	bl	_bf_next
Ltmp330:
	.loc	1 45 3 is_stmt 1                ; bdf_parser.c:45:3
	b	LBB11_1
Ltmp331:
LBB11_6:
	.loc	1 56 16                         ; bdf_parser.c:56:16
	ldr	x0, [sp, #8]
	.loc	1 56 3 is_stmt 0                ; bdf_parser.c:56:3
	bl	_bf_skipspace
	.loc	1 0 0                           ; bdf_parser.c:0:0
	adrp	x0, _bf_get_identifier.buf@PAGE
	add	x0, x0, _bf_get_identifier.buf@PAGEOFF
	.loc	1 57 3 is_stmt 1                ; bdf_parser.c:57:3
	ldp	x29, x30, [sp, #16]             ; 16-byte Folded Reload
	add	sp, sp, #32                     ; =32
	ret
Ltmp332:
Lfunc_end11:
	.cfi_endproc
                                        ; -- End function
	.p2align	2                               ; -- Begin function bf_set_pixel_by_halfbyte
_bf_set_pixel_by_halfbyte:              ; @bf_set_pixel_by_halfbyte
Lfunc_begin12:
	.loc	1 224 0                         ; bdf_parser.c:224:0
	.cfi_startproc
; %bb.0:
	sub	sp, sp, #48                     ; =48
	stp	x29, x30, [sp, #32]             ; 16-byte Folded Spill
	add	x29, sp, #32                    ; =32
	.cfi_def_cfa w29, 16
	.cfi_offset w30, -8
	.cfi_offset w29, -16
	stur	x0, [x29, #-8]
	stur	w1, [x29, #-12]
Ltmp333:
	.loc	1 228 3 prologue_end            ; bdf_parser.c:228:3
	ldur	x8, [x29, #-8]
	ldr	x8, [x8, #8]
	subs	x8, x8, #0                      ; =0
	cset	w8, eq
	tbz	w8, #0, LBB12_2
; %bb.1:
	.loc	1 0 0 is_stmt 0                 ; bdf_parser.c:0:0
	adrp	x0, l___func__.bf_set_pixel_by_halfbyte@PAGE
	add	x0, x0, l___func__.bf_set_pixel_by_halfbyte@PAGEOFF
	adrp	x1, l_.str.47@PAGE
	add	x1, x1, l_.str.47@PAGEOFF
	mov	w2, #228
	adrp	x3, l_.str.48@PAGE
	add	x3, x3, l_.str.48@PAGEOFF
	.loc	1 228 3                         ; bdf_parser.c:228:3
	bl	___assert_rtn
LBB12_2:
; %bb.3:
	.loc	1 230 8 is_stmt 1               ; bdf_parser.c:230:8
	ldur	x8, [x29, #-8]
	.loc	1 230 12 is_stmt 0              ; bdf_parser.c:230:12
	ldr	x8, [x8, #8]
	.loc	1 230 23                        ; bdf_parser.c:230:23
	ldur	x9, [x29, #-8]
	.loc	1 230 27                        ; bdf_parser.c:230:27
	ldrsw	x9, [x9, #1120]
	.loc	1 230 8                         ; bdf_parser.c:230:8
	ldr	x8, [x8, x9, lsl #3]
	.loc	1 230 6                         ; bdf_parser.c:230:6
	str	x8, [sp, #8]
Ltmp334:
	.loc	1 232 11 is_stmt 1              ; bdf_parser.c:232:11
	str	wzr, [sp, #16]
LBB12_4:                                ; =>This Inner Loop Header: Depth=1
Ltmp335:
	.loc	1 232 16 is_stmt 0              ; bdf_parser.c:232:16
	ldr	w8, [sp, #16]
Ltmp336:
	.loc	1 232 3                         ; bdf_parser.c:232:3
	subs	w8, w8, #4                      ; =4
	b.ge	LBB12_9
; %bb.5:                                ;   in Loop: Header=BB12_4 Depth=1
Ltmp337:
	.loc	1 234 11 is_stmt 1              ; bdf_parser.c:234:11
	ldur	w8, [x29, #-12]
Ltmp338:
	.loc	1 234 10 is_stmt 0              ; bdf_parser.c:234:10
	tbz	w8, #3, LBB12_7
; %bb.6:                                ;   in Loop: Header=BB12_4 Depth=1
Ltmp339:
	.loc	1 236 25 is_stmt 1              ; bdf_parser.c:236:25
	ldr	x0, [sp, #8]
	.loc	1 236 29 is_stmt 0              ; bdf_parser.c:236:29
	ldur	x8, [x29, #-8]
	.loc	1 236 33                        ; bdf_parser.c:236:33
	ldr	w1, [x8, #1112]
	.loc	1 236 43                        ; bdf_parser.c:236:43
	ldur	x8, [x29, #-8]
	.loc	1 236 47                        ; bdf_parser.c:236:47
	ldr	w2, [x8, #1116]
	mov	w3, #1
	.loc	1 236 7                         ; bdf_parser.c:236:7
	bl	_bg_SetBitmapPixel
Ltmp340:
LBB12_7:                                ;   in Loop: Header=BB12_4 Depth=1
	.loc	1 238 13 is_stmt 1              ; bdf_parser.c:238:13
	ldur	w8, [x29, #-12]
	lsl	w8, w8, #1
	stur	w8, [x29, #-12]
	.loc	1 239 5                         ; bdf_parser.c:239:5
	ldur	x9, [x29, #-8]
	.loc	1 239 17 is_stmt 0              ; bdf_parser.c:239:17
	ldr	w8, [x9, #1112]
	add	w8, w8, #1                      ; =1
	str	w8, [x9, #1112]
Ltmp341:
; %bb.8:                                ;   in Loop: Header=BB12_4 Depth=1
	.loc	1 232 24 is_stmt 1              ; bdf_parser.c:232:24
	ldr	w8, [sp, #16]
	add	w8, w8, #1                      ; =1
	str	w8, [sp, #16]
	.loc	1 232 3 is_stmt 0               ; bdf_parser.c:232:3
	b	LBB12_4
Ltmp342:
LBB12_9:
	.loc	1 241 1 is_stmt 1               ; bdf_parser.c:241:1
	ldp	x29, x30, [sp, #32]             ; 16-byte Folded Reload
	add	sp, sp, #48                     ; =48
	ret
Ltmp343:
Lfunc_end12:
	.cfi_endproc
                                        ; -- End function
	.section	__TEXT,__cstring,cstring_literals
l_.str:                                 ; @.str
	.asciz	"r"

l_.str.1:                               ; @.str.1
	.asciz	"Can not open bdf file '%s'"

l_.str.2:                               ; @.str.2
	.asciz	"Parse File %s: %d glyph(s) found"

l_.str.3:                               ; @.str.3
	.asciz	"perse error in line %ld"

.zerofill __DATA,__bss,_bf_parse_line.cmd,1024,0 ; @bf_parse_line.cmd
l_.str.4:                               ; @.str.4
	.space	1

l_.str.5:                               ; @.str.5
	.asciz	"STARTFONT"

l_.str.6:                               ; @.str.6
	.asciz	"FONT"

l_.str.7:                               ; @.str.7
	.asciz	"SIZE"

l_.str.8:                               ; @.str.8
	.asciz	"FONTBOUNDINGBOX"

l_.str.9:                               ; @.str.9
	.asciz	"STARTPROPERTIES"

l_.str.10:                              ; @.str.10
	.asciz	"FONTNAME_REGISTRY"

l_.str.11:                              ; @.str.11
	.asciz	"FOUNDRY"

l_.str.12:                              ; @.str.12
	.asciz	"FAMILY_NAME"

l_.str.13:                              ; @.str.13
	.asciz	"WEIGHT_NAME"

l_.str.14:                              ; @.str.14
	.asciz	"SLANT"

l_.str.15:                              ; @.str.15
	.asciz	"SETWIDTH_NAME"

l_.str.16:                              ; @.str.16
	.asciz	"ADD_STYLE_NAME"

l_.str.17:                              ; @.str.17
	.asciz	"PIXEL_SIZE"

l_.str.18:                              ; @.str.18
	.asciz	"POINT_SIZE"

l_.str.19:                              ; @.str.19
	.asciz	"RESOLUTION_X"

l_.str.20:                              ; @.str.20
	.asciz	"RESOLUTION_Y"

l_.str.21:                              ; @.str.21
	.asciz	"SPACING"

l_.str.22:                              ; @.str.22
	.asciz	"AVERAGE_WIDTH"

l_.str.23:                              ; @.str.23
	.asciz	"CHARSET_REGISTRY"

l_.str.24:                              ; @.str.24
	.asciz	"CHARSET_ENCODING"

l_.str.25:                              ; @.str.25
	.asciz	"DESTINATION"

l_.str.26:                              ; @.str.26
	.asciz	"COPYRIGHT"

l_.str.27:                              ; @.str.27
	.asciz	"_XMBDFED_INFO"

l_.str.28:                              ; @.str.28
	.asciz	"CAP_HEIGHT"

l_.str.29:                              ; @.str.29
	.asciz	"X_HEIGHT"

l_.str.30:                              ; @.str.30
	.asciz	"WEIGHT"

l_.str.31:                              ; @.str.31
	.asciz	"QUAD_WIDTH"

l_.str.32:                              ; @.str.32
	.asciz	"DEFAULT_CHAR"

l_.str.33:                              ; @.str.33
	.asciz	"FONT_DESCENT"

l_.str.34:                              ; @.str.34
	.asciz	"FONT_ASCENT"

l_.str.35:                              ; @.str.35
	.asciz	"ENDPROPERTIES"

l_.str.36:                              ; @.str.36
	.asciz	"CHARS"

l_.str.37:                              ; @.str.37
	.asciz	"STARTCHAR"

l_.str.38:                              ; @.str.38
	.asciz	"ENCODING"

l_.str.39:                              ; @.str.39
	.asciz	"SWIDTH"

l_.str.40:                              ; @.str.40
	.asciz	"DWIDTH"

l_.str.41:                              ; @.str.41
	.asciz	"BBX"

l_.str.42:                              ; @.str.42
	.asciz	"BITMAP"

l_.str.43:                              ; @.str.43
	.asciz	"ENDCHAR"

l_.str.44:                              ; @.str.44
	.asciz	"Unexpected ENDCHAR found"

.zerofill __DATA,__bss,_bf_get_string.buf,1024,0 ; @bf_get_string.buf
.zerofill __DATA,__bss,_bf_get_identifier.buf,1024,0 ; @bf_get_identifier.buf
.zerofill __DATA,__bss,_bf_get_eol_string.buf,1024,0 ; @bf_get_eol_string.buf
l_.str.45:                              ; @.str.45
	.asciz	"Can not add glyph (memory error?)"

l_.str.46:                              ; @.str.46
	.asciz	"Can not create bitmap (memory error?)"

l___func__.bf_set_pixel_by_halfbyte:    ; @__func__.bf_set_pixel_by_halfbyte
	.asciz	"bf_set_pixel_by_halfbyte"

l_.str.47:                              ; @.str.47
	.asciz	"bdf_parser.c"

l_.str.48:                              ; @.str.48
	.asciz	"bf->glyph_list != NULL"

	.file	2 "/Users/songsizhou/Documents/GitHub/u8g2_font_builder/u8g2/tools/font/bdfconv" "./bdf_font.h"
	.file	3 "/Users/songsizhou/Documents/GitHub/u8g2_font_builder/u8g2/tools/font/bdfconv" "./bdf_glyph.h"
	.file	4 "/Library/Developer/CommandLineTools/SDKs/MacOSX.sdk/usr/include/_types" "_uint8_t.h"
	.file	5 "/Library/Developer/CommandLineTools/SDKs/MacOSX.sdk/usr/include" "_stdio.h"
	.file	6 "/Library/Developer/CommandLineTools/SDKs/MacOSX.sdk/usr/include/arm" "_types.h"
	.file	7 "/Library/Developer/CommandLineTools/SDKs/MacOSX.sdk/usr/include/sys" "_types.h"