	.section	__TEXT,__text,regular,pure_instructions
	.build_version macos, 12, 0	sdk_version 12, 0
	.globl	_bf_Generate8x8Font             ; -- Begin function bf_Generate8x8Font
	.p2align	2
_bf_Generate8x8Font:                    ; @bf_Generate8x8Font
Lfunc_begin0:
	.file	1 "/Users/songsizhou/Documents/GitHub/u8g2_font_builder/u8g2/tools/font/bdfconv" "bdf_8x8.c"
	.loc	1 76 0                          ; bdf_8x8.c:76:0
	.cfi_startproc
; %bb.0:
	sub	sp, sp, #128                    ; =128
	stp	x29, x30, [sp, #112]            ; 16-byte Folded Spill
	add	x29, sp, #112                   ; =112
	.cfi_def_cfa w29, 16
	.cfi_offset w30, -8
	.cfi_offset w29, -16
	stur	x0, [x29, #-8]
	stur	w1, [x29, #-12]
	stur	w2, [x29, #-16]
Ltmp0:
	.loc	1 86 10 prologue_end            ; bdf_8x8.c:86:10
	stur	wzr, [x29, #-20]
LBB0_1:                                 ; =>This Loop Header: Depth=1
                                        ;     Child Loop BB0_8 Depth 2
                                        ;       Child Loop BB0_10 Depth 3
Ltmp1:
	.loc	1 86 15 is_stmt 0               ; bdf_8x8.c:86:15
	ldur	w8, [x29, #-20]
	.loc	1 86 19                         ; bdf_8x8.c:86:19
	ldur	x9, [x29, #-8]
	.loc	1 86 23                         ; bdf_8x8.c:86:23
	ldr	w9, [x9, #16]
Ltmp2:
	.loc	1 86 3                          ; bdf_8x8.c:86:3
	subs	w8, w8, w9
	b.ge	LBB0_22
; %bb.2:                                ;   in Loop: Header=BB0_1 Depth=1
Ltmp3:
	.loc	1 88 10 is_stmt 1               ; bdf_8x8.c:88:10
	ldur	x8, [x29, #-8]
	.loc	1 88 14 is_stmt 0               ; bdf_8x8.c:88:14
	ldr	x8, [x8, #8]
	.loc	1 88 25                         ; bdf_8x8.c:88:25
	ldursw	x9, [x29, #-20]
	.loc	1 88 10                         ; bdf_8x8.c:88:10
	ldr	x8, [x8, x9, lsl #3]
	.loc	1 88 8                          ; bdf_8x8.c:88:8
	stur	x8, [x29, #-40]
Ltmp4:
	.loc	1 89 10 is_stmt 1               ; bdf_8x8.c:89:10
	ldur	x8, [x29, #-40]
	.loc	1 89 14 is_stmt 0               ; bdf_8x8.c:89:14
	ldr	x8, [x8, #16]
Ltmp5:
	.loc	1 89 10                         ; bdf_8x8.c:89:10
	tbnz	x8, #63, LBB0_20
; %bb.3:                                ;   in Loop: Header=BB0_1 Depth=1
Ltmp6:
	.loc	1 91 36 is_stmt 1               ; bdf_8x8.c:91:36
	ldur	x0, [x29, #-8]
	.loc	1 91 52 is_stmt 0               ; bdf_8x8.c:91:52
	ldur	x2, [x29, #-40]
	add	x1, sp, #32                     ; =32
	.loc	1 91 7                          ; bdf_8x8.c:91:7
	bl	_bf_copy_bbx_and_update_shift
Ltmp7:
	.loc	1 93 23 is_stmt 1               ; bdf_8x8.c:93:23
	ldr	x8, [sp, #32]
	.loc	1 93 25 is_stmt 0               ; bdf_8x8.c:93:25
	and	x8, x8, #0x7
Ltmp8:
	.loc	1 93 12                         ; bdf_8x8.c:93:12
	cbz	x8, LBB0_5
; %bb.4:                                ;   in Loop: Header=BB0_1 Depth=1
Ltmp9:
	.loc	1 95 9 is_stmt 1                ; bdf_8x8.c:95:9
	ldur	x0, [x29, #-8]
	.loc	1 95 106 is_stmt 0              ; bdf_8x8.c:95:106
	ldr	x10, [sp, #32]
	.loc	1 95 109                        ; bdf_8x8.c:95:109
	ldur	x8, [x29, #-40]
	.loc	1 95 113                        ; bdf_8x8.c:95:113
	ldr	x8, [x8, #8]
	.loc	1 0 0                           ; bdf_8x8.c:0:0
	adrp	x1, l_.str@PAGE
	add	x1, x1, l_.str@PAGEOFF
	.loc	1 95 2                          ; bdf_8x8.c:95:2
	mov	x9, sp
	str	x10, [x9]
	str	x8, [x9, #8]
	bl	_bf_Log
	.loc	1 96 7 is_stmt 1                ; bdf_8x8.c:96:7
	b	LBB0_19
Ltmp10:
LBB0_5:                                 ;   in Loop: Header=BB0_1 Depth=1
	.loc	1 99 18                         ; bdf_8x8.c:99:18
	ldr	x8, [sp, #40]
	.loc	1 99 20 is_stmt 0               ; bdf_8x8.c:99:20
	and	x8, x8, #0x7
Ltmp11:
	.loc	1 99 7                          ; bdf_8x8.c:99:7
	cbz	x8, LBB0_7
; %bb.6:                                ;   in Loop: Header=BB0_1 Depth=1
Ltmp12:
	.loc	1 101 11 is_stmt 1              ; bdf_8x8.c:101:11
	ldur	x0, [x29, #-8]
	.loc	1 101 110 is_stmt 0             ; bdf_8x8.c:101:110
	ldr	x10, [sp, #40]
	.loc	1 101 113                       ; bdf_8x8.c:101:113
	ldur	x8, [x29, #-40]
	.loc	1 101 117                       ; bdf_8x8.c:101:117
	ldr	x8, [x8, #8]
	.loc	1 0 0                           ; bdf_8x8.c:0:0
	adrp	x1, l_.str.1@PAGE
	add	x1, x1, l_.str.1@PAGEOFF
	.loc	1 101 4                         ; bdf_8x8.c:101:4
	mov	x9, sp
	str	x10, [x9]
	str	x8, [x9, #8]
	bl	_bf_Log
	.loc	1 102 2 is_stmt 1               ; bdf_8x8.c:102:2
	b	LBB0_18
Ltmp13:
LBB0_7:                                 ;   in Loop: Header=BB0_1 Depth=1
	.loc	1 105 23                        ; bdf_8x8.c:105:23
	ldur	x0, [x29, #-40]
	.loc	1 105 4 is_stmt 0               ; bdf_8x8.c:105:4
	bl	_bg_ClearTargetData
Ltmp14:
	.loc	1 106 11 is_stmt 1              ; bdf_8x8.c:106:11
	str	wzr, [sp, #20]
LBB0_8:                                 ;   Parent Loop BB0_1 Depth=1
                                        ; =>  This Loop Header: Depth=2
                                        ;       Child Loop BB0_10 Depth 3
Ltmp15:
	.loc	1 106 16 is_stmt 0              ; bdf_8x8.c:106:16
	ldr	w8, [sp, #20]
	.loc	1 106 20                        ; bdf_8x8.c:106:20
	ldur	x9, [x29, #-8]
	.loc	1 106 24                        ; bdf_8x8.c:106:24
	ldr	w9, [x9, #1308]
Ltmp16:
	.loc	1 106 4                         ; bdf_8x8.c:106:4
	subs	w8, w8, w9
	b.ge	LBB0_17
; %bb.9:                                ;   in Loop: Header=BB0_8 Depth=2
Ltmp17:
	.loc	1 108 13 is_stmt 1              ; bdf_8x8.c:108:13
	str	wzr, [sp, #24]
LBB0_10:                                ;   Parent Loop BB0_1 Depth=1
                                        ;     Parent Loop BB0_8 Depth=2
                                        ; =>    This Inner Loop Header: Depth=3
Ltmp18:
	.loc	1 108 18 is_stmt 0              ; bdf_8x8.c:108:18
	ldr	w8, [sp, #24]
	.loc	1 108 22                        ; bdf_8x8.c:108:22
	ldur	x9, [x29, #-8]
	.loc	1 108 26                        ; bdf_8x8.c:108:26
	ldr	w9, [x9, #1304]
Ltmp19:
	.loc	1 108 6                         ; bdf_8x8.c:108:6
	subs	w8, w8, w9
	b.ge	LBB0_15
; %bb.11:                               ;   in Loop: Header=BB0_10 Depth=3
Ltmp20:
	.loc	1 112 28 is_stmt 1              ; bdf_8x8.c:112:28
	ldur	x0, [x29, #-40]
	.loc	1 112 44 is_stmt 0              ; bdf_8x8.c:112:44
	ldur	w8, [x29, #-12]
	.loc	1 112 49                        ; bdf_8x8.c:112:49
	ldr	w10, [sp, #24]
	mov	w9, #8
	.loc	1 112 48                        ; bdf_8x8.c:112:48
	mul	w10, w9, w10
	.loc	1 112 46                        ; bdf_8x8.c:112:46
	add	w2, w8, w10
	.loc	1 112 52                        ; bdf_8x8.c:112:52
	ldur	w8, [x29, #-16]
	.loc	1 112 58                        ; bdf_8x8.c:112:58
	ldur	x10, [x29, #-8]
	.loc	1 112 62                        ; bdf_8x8.c:112:62
	ldr	w10, [x10, #1308]
	.loc	1 112 74                        ; bdf_8x8.c:112:74
	ldr	w11, [sp, #20]
	.loc	1 112 73                        ; bdf_8x8.c:112:73
	subs	w10, w10, w11
	.loc	1 112 75                        ; bdf_8x8.c:112:75
	subs	w10, w10, #1                    ; =1
	.loc	1 112 56                        ; bdf_8x8.c:112:56
	mul	w9, w9, w10
	.loc	1 112 54                        ; bdf_8x8.c:112:54
	add	w3, w8, w9
	add	x1, sp, #32                     ; =32
	.loc	1 112 13                        ; bdf_8x8.c:112:13
	bl	_bg_8x8_convert
Ltmp21:
	.loc	1 112 13                        ; bdf_8x8.c:112:13
	cbnz	w0, LBB0_13
; %bb.12:                               ;   in Loop: Header=BB0_10 Depth=3
Ltmp22:
	.loc	1 114 10 is_stmt 1              ; bdf_8x8.c:114:10
	ldur	x0, [x29, #-8]
	.loc	1 114 69 is_stmt 0              ; bdf_8x8.c:114:69
	ldur	x8, [x29, #-40]
	.loc	1 114 73                        ; bdf_8x8.c:114:73
	ldr	w8, [x8, #116]
                                        ; implicit-def: $x10
	mov	x10, x8
	.loc	1 114 85                        ; bdf_8x8.c:114:85
	ldur	x8, [x29, #-40]
	.loc	1 114 89                        ; bdf_8x8.c:114:89
	ldr	x8, [x8, #8]
	.loc	1 0 0                           ; bdf_8x8.c:0:0
	adrp	x1, l_.str.2@PAGE
	add	x1, x1, l_.str.2@PAGEOFF
	.loc	1 114 3                         ; bdf_8x8.c:114:3
	mov	x9, sp
	str	x10, [x9]
	str	x8, [x9, #8]
	bl	_bf_Log
Ltmp23:
LBB0_13:                                ;   in Loop: Header=BB0_10 Depth=3
; %bb.14:                               ;   in Loop: Header=BB0_10 Depth=3
	.loc	1 108 40 is_stmt 1              ; bdf_8x8.c:108:40
	ldr	w8, [sp, #24]
	add	w8, w8, #1                      ; =1
	str	w8, [sp, #24]
	.loc	1 108 6 is_stmt 0               ; bdf_8x8.c:108:6
	b	LBB0_10
Ltmp24:
LBB0_15:                                ;   in Loop: Header=BB0_8 Depth=2
; %bb.16:                               ;   in Loop: Header=BB0_8 Depth=2
	.loc	1 106 38 is_stmt 1              ; bdf_8x8.c:106:38
	ldr	w8, [sp, #20]
	add	w8, w8, #1                      ; =1
	str	w8, [sp, #20]
	.loc	1 106 4 is_stmt 0               ; bdf_8x8.c:106:4
	b	LBB0_8
Ltmp25:
LBB0_17:                                ;   in Loop: Header=BB0_1 Depth=1
LBB0_18:                                ;   in Loop: Header=BB0_1 Depth=1
LBB0_19:                                ;   in Loop: Header=BB0_1 Depth=1
LBB0_20:                                ;   in Loop: Header=BB0_1 Depth=1
; %bb.21:                               ;   in Loop: Header=BB0_1 Depth=1
	.loc	1 86 35 is_stmt 1               ; bdf_8x8.c:86:35
	ldur	w8, [x29, #-20]
	add	w8, w8, #1                      ; =1
	stur	w8, [x29, #-20]
	.loc	1 86 3 is_stmt 0                ; bdf_8x8.c:86:3
	b	LBB0_1
Ltmp26:
LBB0_22:
	.loc	1 0 3                           ; bdf_8x8.c:0:3
	mov	w8, #-1
	.loc	1 125 9 is_stmt 1               ; bdf_8x8.c:125:9
	stur	w8, [x29, #-44]
	.loc	1 126 8                         ; bdf_8x8.c:126:8
	stur	w8, [x29, #-48]
Ltmp27:
	.loc	1 128 10                        ; bdf_8x8.c:128:10
	stur	wzr, [x29, #-24]
LBB0_23:                                ; =>This Loop Header: Depth=1
                                        ;     Child Loop BB0_25 Depth 2
Ltmp28:
	.loc	1 128 15 is_stmt 0              ; bdf_8x8.c:128:15
	ldur	w8, [x29, #-24]
Ltmp29:
	.loc	1 128 3                         ; bdf_8x8.c:128:3
	subs	w8, w8, #256                    ; =256
	b.ge	LBB0_39
; %bb.24:                               ;   in Loop: Header=BB0_23 Depth=1
Ltmp30:
	.loc	1 130 12 is_stmt 1              ; bdf_8x8.c:130:12
	stur	wzr, [x29, #-20]
LBB0_25:                                ;   Parent Loop BB0_23 Depth=1
                                        ; =>  This Inner Loop Header: Depth=2
Ltmp31:
	.loc	1 130 17 is_stmt 0              ; bdf_8x8.c:130:17
	ldur	w8, [x29, #-20]
	.loc	1 130 21                        ; bdf_8x8.c:130:21
	ldur	x9, [x29, #-8]
	.loc	1 130 25                        ; bdf_8x8.c:130:25
	ldr	w9, [x9, #16]
Ltmp32:
	.loc	1 130 5                         ; bdf_8x8.c:130:5
	subs	w8, w8, w9
	b.ge	LBB0_37
; %bb.26:                               ;   in Loop: Header=BB0_25 Depth=2
Ltmp33:
	.loc	1 132 12 is_stmt 1              ; bdf_8x8.c:132:12
	ldur	x8, [x29, #-8]
	.loc	1 132 16 is_stmt 0              ; bdf_8x8.c:132:16
	ldr	x8, [x8, #8]
	.loc	1 132 27                        ; bdf_8x8.c:132:27
	ldursw	x9, [x29, #-20]
	.loc	1 132 12                        ; bdf_8x8.c:132:12
	ldr	x8, [x8, x9, lsl #3]
	.loc	1 132 10                        ; bdf_8x8.c:132:10
	stur	x8, [x29, #-40]
Ltmp34:
	.loc	1 133 12 is_stmt 1              ; bdf_8x8.c:133:12
	ldur	x8, [x29, #-40]
	.loc	1 133 16 is_stmt 0              ; bdf_8x8.c:133:16
	ldr	x8, [x8, #16]
	.loc	1 133 26                        ; bdf_8x8.c:133:26
	ldursw	x9, [x29, #-24]
Ltmp35:
	.loc	1 133 12                        ; bdf_8x8.c:133:12
	subs	x8, x8, x9
	b.ne	LBB0_35
; %bb.27:                               ;   in Loop: Header=BB0_25 Depth=2
Ltmp36:
	.loc	1 135 7 is_stmt 1               ; bdf_8x8.c:135:7
	ldur	x8, [x29, #-40]
	.loc	1 135 11 is_stmt 0              ; bdf_8x8.c:135:11
	ldr	x8, [x8, #104]
Ltmp37:
	.loc	1 135 7                         ; bdf_8x8.c:135:7
	cbz	x8, LBB0_34
; %bb.28:                               ;   in Loop: Header=BB0_25 Depth=2
Ltmp38:
	.loc	1 139 9 is_stmt 1               ; bdf_8x8.c:139:9
	ldur	x8, [x29, #-40]
	.loc	1 139 13 is_stmt 0              ; bdf_8x8.c:139:13
	ldr	w8, [x8, #116]
	.loc	1 139 27                        ; bdf_8x8.c:139:27
	ldur	x9, [x29, #-8]
	.loc	1 139 31                        ; bdf_8x8.c:139:31
	ldr	w9, [x9, #1304]
	.loc	1 139 43                        ; bdf_8x8.c:139:43
	ldur	x10, [x29, #-8]
	.loc	1 139 47                        ; bdf_8x8.c:139:47
	ldr	w10, [x10, #1308]
	.loc	1 139 42                        ; bdf_8x8.c:139:42
	mul	w9, w9, w10
Ltmp39:
	.loc	1 139 9                         ; bdf_8x8.c:139:9
	subs	w8, w8, w9, lsl #3
	b.eq	LBB0_30
; %bb.29:                               ;   in Loop: Header=BB0_25 Depth=2
Ltmp40:
	.loc	1 141 13 is_stmt 1              ; bdf_8x8.c:141:13
	ldur	x0, [x29, #-8]
	.loc	1 141 87 is_stmt 0              ; bdf_8x8.c:141:87
	ldur	x8, [x29, #-40]
	.loc	1 141 91                        ; bdf_8x8.c:141:91
	ldr	w8, [x8, #116]
                                        ; implicit-def: $x10
	mov	x10, x8
	.loc	1 141 103                       ; bdf_8x8.c:141:103
	ldur	x8, [x29, #-40]
	.loc	1 141 107                       ; bdf_8x8.c:141:107
	ldr	x8, [x8, #8]
	.loc	1 0 0                           ; bdf_8x8.c:0:0
	adrp	x1, l_.str.3@PAGE
	add	x1, x1, l_.str.3@PAGEOFF
	.loc	1 141 6                         ; bdf_8x8.c:141:6
	mov	x9, sp
	str	x10, [x9]
	str	x8, [x9, #8]
	bl	_bf_Log
	.loc	1 142 4 is_stmt 1               ; bdf_8x8.c:142:4
	b	LBB0_33
Ltmp41:
LBB0_30:                                ;   in Loop: Header=BB0_25 Depth=2
	.loc	1 145 11                        ; bdf_8x8.c:145:11
	ldur	w8, [x29, #-44]
Ltmp42:
	.loc	1 145 11 is_stmt 0              ; bdf_8x8.c:145:11
	subs	w8, w8, #0                      ; =0
	b.ge	LBB0_32
; %bb.31:                               ;   in Loop: Header=BB0_25 Depth=2
Ltmp43:
	.loc	1 146 16 is_stmt 1              ; bdf_8x8.c:146:16
	ldur	w8, [x29, #-24]
	.loc	1 146 14 is_stmt 0              ; bdf_8x8.c:146:14
	stur	w8, [x29, #-44]
Ltmp44:
LBB0_32:                                ;   in Loop: Header=BB0_25 Depth=2
	.loc	1 147 13 is_stmt 1              ; bdf_8x8.c:147:13
	ldur	w8, [x29, #-24]
	.loc	1 147 11 is_stmt 0              ; bdf_8x8.c:147:11
	stur	w8, [x29, #-48]
Ltmp45:
LBB0_33:                                ;   in Loop: Header=BB0_25 Depth=2
LBB0_34:                                ;   in Loop: Header=BB0_25 Depth=2
LBB0_35:                                ;   in Loop: Header=BB0_25 Depth=2
; %bb.36:                               ;   in Loop: Header=BB0_25 Depth=2
	.loc	1 130 37 is_stmt 1              ; bdf_8x8.c:130:37
	ldur	w8, [x29, #-20]
	add	w8, w8, #1                      ; =1
	stur	w8, [x29, #-20]
	.loc	1 130 5 is_stmt 0               ; bdf_8x8.c:130:5
	b	LBB0_25
Ltmp46:
LBB0_37:                                ;   in Loop: Header=BB0_23 Depth=1
; %bb.38:                               ;   in Loop: Header=BB0_23 Depth=1
	.loc	1 128 25 is_stmt 1              ; bdf_8x8.c:128:25
	ldur	w8, [x29, #-24]
	add	w8, w8, #1                      ; =1
	stur	w8, [x29, #-24]
	.loc	1 128 3 is_stmt 0               ; bdf_8x8.c:128:3
	b	LBB0_23
Ltmp47:
LBB0_39:
	.loc	1 156 20 is_stmt 1              ; bdf_8x8.c:156:20
	ldur	x0, [x29, #-8]
	.loc	1 156 24 is_stmt 0              ; bdf_8x8.c:156:24
	ldur	w8, [x29, #-44]
	.loc	1 156 3                         ; bdf_8x8.c:156:3
	and	w1, w8, #0xff
	bl	_bf_AddTargetData
	.loc	1 157 20 is_stmt 1              ; bdf_8x8.c:157:20
	ldur	x0, [x29, #-8]
	.loc	1 157 24 is_stmt 0              ; bdf_8x8.c:157:24
	ldur	w8, [x29, #-48]
	.loc	1 157 3                         ; bdf_8x8.c:157:3
	and	w1, w8, #0xff
	bl	_bf_AddTargetData
	.loc	1 158 20 is_stmt 1              ; bdf_8x8.c:158:20
	ldur	x0, [x29, #-8]
	.loc	1 158 24 is_stmt 0              ; bdf_8x8.c:158:24
	ldur	x8, [x29, #-8]
	.loc	1 158 28                        ; bdf_8x8.c:158:28
	ldr	w8, [x8, #1304]
	.loc	1 158 3                         ; bdf_8x8.c:158:3
	and	w1, w8, #0xff
	bl	_bf_AddTargetData
	.loc	1 159 20 is_stmt 1              ; bdf_8x8.c:159:20
	ldur	x0, [x29, #-8]
	.loc	1 159 24 is_stmt 0              ; bdf_8x8.c:159:24
	ldur	x8, [x29, #-8]
	.loc	1 159 28                        ; bdf_8x8.c:159:28
	ldr	w8, [x8, #1308]
	.loc	1 159 3                         ; bdf_8x8.c:159:3
	and	w1, w8, #0xff
	bl	_bf_AddTargetData
	.loc	1 160 10 is_stmt 1              ; bdf_8x8.c:160:10
	ldur	x0, [x29, #-8]
	.loc	1 160 63 is_stmt 0              ; bdf_8x8.c:160:63
	ldur	x8, [x29, #-8]
	.loc	1 160 67                        ; bdf_8x8.c:160:67
	ldr	w8, [x8, #1304]
                                        ; implicit-def: $x10
	mov	x10, x8
	.loc	1 160 80                        ; bdf_8x8.c:160:80
	ldur	x8, [x29, #-8]
	.loc	1 160 84                        ; bdf_8x8.c:160:84
	ldr	w9, [x8, #1308]
                                        ; implicit-def: $x8
	mov	x8, x9
	.loc	1 0 0                           ; bdf_8x8.c:0:0
	adrp	x1, l_.str.4@PAGE
	add	x1, x1, l_.str.4@PAGEOFF
	.loc	1 160 3                         ; bdf_8x8.c:160:3
	mov	x9, sp
	str	x10, [x9]
	str	x8, [x9, #8]
	bl	_bf_Log
Ltmp48:
	.loc	1 163 12 is_stmt 1              ; bdf_8x8.c:163:12
	ldur	w8, [x29, #-44]
	.loc	1 163 10 is_stmt 0              ; bdf_8x8.c:163:10
	stur	w8, [x29, #-24]
LBB0_40:                                ; =>This Loop Header: Depth=1
                                        ;     Child Loop BB0_42 Depth 2
                                        ;       Child Loop BB0_47 Depth 3
                                        ;     Child Loop BB0_57 Depth 2
Ltmp49:
	.loc	1 163 19                        ; bdf_8x8.c:163:19
	ldur	w8, [x29, #-24]
	.loc	1 163 24                        ; bdf_8x8.c:163:24
	ldur	w9, [x29, #-48]
Ltmp50:
	.loc	1 163 3                         ; bdf_8x8.c:163:3
	subs	w8, w8, w9
	b.gt	LBB0_63
; %bb.41:                               ;   in Loop: Header=BB0_40 Depth=1
Ltmp51:
	.loc	1 165 22 is_stmt 1              ; bdf_8x8.c:165:22
	str	wzr, [sp, #28]
Ltmp52:
	.loc	1 166 12                        ; bdf_8x8.c:166:12
	stur	wzr, [x29, #-20]
LBB0_42:                                ;   Parent Loop BB0_40 Depth=1
                                        ; =>  This Loop Header: Depth=2
                                        ;       Child Loop BB0_47 Depth 3
Ltmp53:
	.loc	1 166 17 is_stmt 0              ; bdf_8x8.c:166:17
	ldur	w8, [x29, #-20]
	.loc	1 166 21                        ; bdf_8x8.c:166:21
	ldur	x9, [x29, #-8]
	.loc	1 166 25                        ; bdf_8x8.c:166:25
	ldr	w9, [x9, #16]
Ltmp54:
	.loc	1 166 5                         ; bdf_8x8.c:166:5
	subs	w8, w8, w9
	b.ge	LBB0_55
; %bb.43:                               ;   in Loop: Header=BB0_42 Depth=2
Ltmp55:
	.loc	1 168 12 is_stmt 1              ; bdf_8x8.c:168:12
	ldur	x8, [x29, #-8]
	.loc	1 168 16 is_stmt 0              ; bdf_8x8.c:168:16
	ldr	x8, [x8, #8]
	.loc	1 168 27                        ; bdf_8x8.c:168:27
	ldursw	x9, [x29, #-20]
	.loc	1 168 12                        ; bdf_8x8.c:168:12
	ldr	x8, [x8, x9, lsl #3]
	.loc	1 168 10                        ; bdf_8x8.c:168:10
	stur	x8, [x29, #-40]
Ltmp56:
	.loc	1 169 12 is_stmt 1              ; bdf_8x8.c:169:12
	ldur	x8, [x29, #-40]
	.loc	1 169 16 is_stmt 0              ; bdf_8x8.c:169:16
	ldr	x8, [x8, #16]
	.loc	1 169 26                        ; bdf_8x8.c:169:26
	ldursw	x9, [x29, #-24]
Ltmp57:
	.loc	1 169 12                        ; bdf_8x8.c:169:12
	subs	x8, x8, x9
	b.ne	LBB0_53
; %bb.44:                               ;   in Loop: Header=BB0_42 Depth=2
Ltmp58:
	.loc	1 171 7 is_stmt 1               ; bdf_8x8.c:171:7
	ldur	x8, [x29, #-40]
	.loc	1 171 11 is_stmt 0              ; bdf_8x8.c:171:11
	ldr	x8, [x8, #104]
Ltmp59:
	.loc	1 171 7                         ; bdf_8x8.c:171:7
	cbz	x8, LBB0_52
; %bb.45:                               ;   in Loop: Header=BB0_42 Depth=2
Ltmp60:
	.loc	1 174 9 is_stmt 1               ; bdf_8x8.c:174:9
	ldur	x8, [x29, #-40]
	.loc	1 174 13 is_stmt 0              ; bdf_8x8.c:174:13
	ldr	w8, [x8, #116]
	.loc	1 174 27                        ; bdf_8x8.c:174:27
	ldur	x9, [x29, #-8]
	.loc	1 174 31                        ; bdf_8x8.c:174:31
	ldr	w9, [x9, #1304]
	.loc	1 174 43                        ; bdf_8x8.c:174:43
	ldur	x10, [x29, #-8]
	.loc	1 174 47                        ; bdf_8x8.c:174:47
	ldr	w10, [x10, #1308]
	.loc	1 174 42                        ; bdf_8x8.c:174:42
	mul	w9, w9, w10
Ltmp61:
	.loc	1 174 9                         ; bdf_8x8.c:174:9
	subs	w8, w8, w9, lsl #3
	b.ne	LBB0_51
; %bb.46:                               ;   in Loop: Header=BB0_42 Depth=2
Ltmp62:
	.loc	1 176 13 is_stmt 1              ; bdf_8x8.c:176:13
	stur	wzr, [x29, #-28]
LBB0_47:                                ;   Parent Loop BB0_40 Depth=1
                                        ;     Parent Loop BB0_42 Depth=2
                                        ; =>    This Inner Loop Header: Depth=3
Ltmp63:
	.loc	1 176 18 is_stmt 0              ; bdf_8x8.c:176:18
	ldur	w8, [x29, #-28]
	.loc	1 176 22                        ; bdf_8x8.c:176:22
	ldur	x9, [x29, #-40]
	.loc	1 176 26                        ; bdf_8x8.c:176:26
	ldr	w9, [x9, #116]
Ltmp64:
	.loc	1 176 6                         ; bdf_8x8.c:176:6
	subs	w8, w8, w9
	b.ge	LBB0_50
; %bb.48:                               ;   in Loop: Header=BB0_47 Depth=3
Ltmp65:
	.loc	1 178 25 is_stmt 1              ; bdf_8x8.c:178:25
	ldur	x0, [x29, #-8]
	.loc	1 178 29 is_stmt 0              ; bdf_8x8.c:178:29
	ldur	x8, [x29, #-40]
	.loc	1 178 33                        ; bdf_8x8.c:178:33
	ldr	x8, [x8, #104]
	.loc	1 178 45                        ; bdf_8x8.c:178:45
	ldursw	x9, [x29, #-28]
	.loc	1 178 29                        ; bdf_8x8.c:178:29
	ldrb	w1, [x8, x9]
	.loc	1 178 8                         ; bdf_8x8.c:178:8
	bl	_bf_AddTargetData
Ltmp66:
; %bb.49:                               ;   in Loop: Header=BB0_47 Depth=3
	.loc	1 176 39 is_stmt 1              ; bdf_8x8.c:176:39
	ldur	w8, [x29, #-28]
	add	w8, w8, #1                      ; =1
	stur	w8, [x29, #-28]
	.loc	1 176 6 is_stmt 0               ; bdf_8x8.c:176:6
	b	LBB0_47
Ltmp67:
LBB0_50:                                ;   in Loop: Header=BB0_42 Depth=2
	.loc	1 0 6                           ; bdf_8x8.c:0:6
	mov	w8, #1
	.loc	1 180 23 is_stmt 1              ; bdf_8x8.c:180:23
	str	w8, [sp, #28]
Ltmp68:
LBB0_51:                                ;   in Loop: Header=BB0_42 Depth=2
LBB0_52:                                ;   in Loop: Header=BB0_42 Depth=2
LBB0_53:                                ;   in Loop: Header=BB0_42 Depth=2
; %bb.54:                               ;   in Loop: Header=BB0_42 Depth=2
	.loc	1 166 37                        ; bdf_8x8.c:166:37
	ldur	w8, [x29, #-20]
	add	w8, w8, #1                      ; =1
	stur	w8, [x29, #-20]
	.loc	1 166 5 is_stmt 0               ; bdf_8x8.c:166:5
	b	LBB0_42
Ltmp69:
LBB0_55:                                ;   in Loop: Header=BB0_40 Depth=1
	.loc	1 185 11 is_stmt 1              ; bdf_8x8.c:185:11
	ldr	w8, [sp, #28]
Ltmp70:
	.loc	1 185 11 is_stmt 0              ; bdf_8x8.c:185:11
	cbnz	w8, LBB0_61
; %bb.56:                               ;   in Loop: Header=BB0_40 Depth=1
Ltmp71:
	.loc	1 187 14 is_stmt 1              ; bdf_8x8.c:187:14
	stur	wzr, [x29, #-28]
LBB0_57:                                ;   Parent Loop BB0_40 Depth=1
                                        ; =>  This Inner Loop Header: Depth=2
Ltmp72:
	.loc	1 187 19 is_stmt 0              ; bdf_8x8.c:187:19
	ldur	w8, [x29, #-28]
	.loc	1 187 23                        ; bdf_8x8.c:187:23
	ldur	x9, [x29, #-8]
	.loc	1 187 27                        ; bdf_8x8.c:187:27
	ldr	w9, [x9, #1304]
	.loc	1 187 39                        ; bdf_8x8.c:187:39
	ldur	x10, [x29, #-8]
	.loc	1 187 43                        ; bdf_8x8.c:187:43
	ldr	w10, [x10, #1308]
	.loc	1 187 38                        ; bdf_8x8.c:187:38
	mul	w9, w9, w10
Ltmp73:
	.loc	1 187 7                         ; bdf_8x8.c:187:7
	subs	w8, w8, w9, lsl #3
	b.ge	LBB0_60
; %bb.58:                               ;   in Loop: Header=BB0_57 Depth=2
Ltmp74:
	.loc	1 189 19 is_stmt 1              ; bdf_8x8.c:189:19
	ldur	x0, [x29, #-8]
	mov	w1, #0
	.loc	1 189 2 is_stmt 0               ; bdf_8x8.c:189:2
	bl	_bf_AddTargetData
Ltmp75:
; %bb.59:                               ;   in Loop: Header=BB0_57 Depth=2
	.loc	1 187 59 is_stmt 1              ; bdf_8x8.c:187:59
	ldur	w8, [x29, #-28]
	add	w8, w8, #1                      ; =1
	stur	w8, [x29, #-28]
	.loc	1 187 7 is_stmt 0               ; bdf_8x8.c:187:7
	b	LBB0_57
Ltmp76:
LBB0_60:                                ;   in Loop: Header=BB0_40 Depth=1
LBB0_61:                                ;   in Loop: Header=BB0_40 Depth=1
; %bb.62:                               ;   in Loop: Header=BB0_40 Depth=1
	.loc	1 163 31 is_stmt 1              ; bdf_8x8.c:163:31
	ldur	w8, [x29, #-24]
	add	w8, w8, #1                      ; =1
	stur	w8, [x29, #-24]
	.loc	1 163 3 is_stmt 0               ; bdf_8x8.c:163:3
	b	LBB0_40
Ltmp77:
LBB0_63:
	.loc	1 195 10 is_stmt 1              ; bdf_8x8.c:195:10
	ldur	x0, [x29, #-8]
	.loc	1 195 47 is_stmt 0              ; bdf_8x8.c:195:47
	ldur	x8, [x29, #-8]
	.loc	1 195 51                        ; bdf_8x8.c:195:51
	ldr	w9, [x8, #1300]
                                        ; implicit-def: $x8
	mov	x8, x9
	.loc	1 0 0                           ; bdf_8x8.c:0:0
	adrp	x1, l_.str.5@PAGE
	add	x1, x1, l_.str.5@PAGEOFF
	.loc	1 195 3                         ; bdf_8x8.c:195:3
	mov	x9, sp
	str	x8, [x9]
	bl	_bf_Log
	.loc	1 196 1 is_stmt 1               ; bdf_8x8.c:196:1
	ldp	x29, x30, [sp, #112]            ; 16-byte Folded Reload
	add	sp, sp, #128                    ; =128
	ret
Ltmp78:
Lfunc_end0:
	.cfi_endproc
                                        ; -- End function
	.p2align	2                               ; -- Begin function bg_8x8_convert
_bg_8x8_convert:                        ; @bg_8x8_convert
Lfunc_begin1:
	.loc	1 23 0                          ; bdf_8x8.c:23:0
	.cfi_startproc
; %bb.0:
	sub	sp, sp, #64                     ; =64
	stp	x29, x30, [sp, #48]             ; 16-byte Folded Spill
	add	x29, sp, #48                    ; =48
	.cfi_def_cfa w29, 16
	.cfi_offset w30, -8
	.cfi_offset w29, -16
	stur	x0, [x29, #-16]
	str	x1, [sp, #24]
	str	w2, [sp, #20]
	str	w3, [sp, #16]
Ltmp79:
	.loc	1 28 8 prologue_end             ; bdf_8x8.c:28:8
	ldr	x8, [sp, #24]
Ltmp80:
	.loc	1 28 8 is_stmt 0                ; bdf_8x8.c:28:8
	cbnz	x8, LBB1_2
; %bb.1:
Ltmp81:
	.loc	1 29 13 is_stmt 1               ; bdf_8x8.c:29:13
	ldur	x8, [x29, #-16]
	.loc	1 29 17 is_stmt 0               ; bdf_8x8.c:29:17
	add	x8, x8, #40                     ; =40
	.loc	1 29 9                          ; bdf_8x8.c:29:9
	str	x8, [sp, #24]
Ltmp82:
LBB1_2:
	.loc	1 56 12 is_stmt 1               ; bdf_8x8.c:56:12
	ldr	x8, [sp, #24]
	.loc	1 56 17 is_stmt 0               ; bdf_8x8.c:56:17
	ldr	x8, [x8, #16]
                                        ; kill: def $w8 killed $w8 killed $x8
	.loc	1 56 10                         ; bdf_8x8.c:56:10
	str	w8, [sp, #12]
LBB1_3:                                 ; =>This Loop Header: Depth=1
                                        ;     Child Loop BB1_5 Depth 2
Ltmp83:
	.loc	1 56 20                         ; bdf_8x8.c:56:20
	ldrsw	x8, [sp, #12]
	.loc	1 56 24                         ; bdf_8x8.c:56:24
	ldr	x9, [sp, #24]
	.loc	1 56 29                         ; bdf_8x8.c:56:29
	ldr	x9, [x9, #16]
	.loc	1 56 33                         ; bdf_8x8.c:56:33
	ldr	x10, [sp, #24]
	.loc	1 56 38                         ; bdf_8x8.c:56:38
	ldr	x10, [x10]
	.loc	1 56 31                         ; bdf_8x8.c:56:31
	add	x9, x9, x10
Ltmp84:
	.loc	1 56 3                          ; bdf_8x8.c:56:3
	subs	x8, x8, x9
	b.ge	LBB1_14
; %bb.4:                                ;   in Loop: Header=BB1_3 Depth=1
Ltmp85:
	.loc	1 58 7 is_stmt 1                ; bdf_8x8.c:58:7
	str	wzr, [sp, #4]
Ltmp86:
	.loc	1 59 14                         ; bdf_8x8.c:59:14
	ldr	x8, [sp, #24]
	.loc	1 59 19 is_stmt 0               ; bdf_8x8.c:59:19
	ldr	x8, [x8, #24]
	.loc	1 59 21                         ; bdf_8x8.c:59:21
	ldr	x9, [sp, #24]
	.loc	1 59 26                         ; bdf_8x8.c:59:26
	ldr	x9, [x9, #8]
	.loc	1 59 20                         ; bdf_8x8.c:59:20
	add	x8, x8, x9
	.loc	1 59 27                         ; bdf_8x8.c:59:27
	subs	x8, x8, #1                      ; =1
                                        ; kill: def $w8 killed $w8 killed $x8
	.loc	1 59 12                         ; bdf_8x8.c:59:12
	str	w8, [sp, #8]
LBB1_5:                                 ;   Parent Loop BB1_3 Depth=1
                                        ; =>  This Inner Loop Header: Depth=2
Ltmp87:
	.loc	1 59 31                         ; bdf_8x8.c:59:31
	ldrsw	x8, [sp, #8]
	.loc	1 59 36                         ; bdf_8x8.c:59:36
	ldr	x9, [sp, #24]
	.loc	1 59 41                         ; bdf_8x8.c:59:41
	ldr	x9, [x9, #24]
Ltmp88:
	.loc	1 59 5                          ; bdf_8x8.c:59:5
	subs	x8, x8, x9
	b.lt	LBB1_10
; %bb.6:                                ;   in Loop: Header=BB1_5 Depth=2
Ltmp89:
	.loc	1 61 9 is_stmt 1                ; bdf_8x8.c:61:9
	ldr	w8, [sp, #4]
	asr	w8, w8, #1
	str	w8, [sp, #4]
Ltmp90:
	.loc	1 62 27                         ; bdf_8x8.c:62:27
	ldur	x0, [x29, #-16]
	.loc	1 62 31 is_stmt 0               ; bdf_8x8.c:62:31
	ldr	w8, [sp, #12]
	.loc	1 62 33                         ; bdf_8x8.c:62:33
	ldr	w9, [sp, #20]
	.loc	1 62 32                         ; bdf_8x8.c:62:32
	add	w1, w8, w9
	.loc	1 62 37                         ; bdf_8x8.c:62:37
	ldr	w8, [sp, #8]
	.loc	1 62 39                         ; bdf_8x8.c:62:39
	ldr	w9, [sp, #16]
	.loc	1 62 38                         ; bdf_8x8.c:62:38
	add	w2, w8, w9
	.loc	1 62 12                         ; bdf_8x8.c:62:12
	bl	_bg_GetBBXPixel
Ltmp91:
	.loc	1 62 12                         ; bdf_8x8.c:62:12
	cbz	w0, LBB1_8
; %bb.7:                                ;   in Loop: Header=BB1_5 Depth=2
Ltmp92:
	.loc	1 64 4 is_stmt 1                ; bdf_8x8.c:64:4
	ldr	w8, [sp, #4]
	orr	w8, w8, #0x80
	str	w8, [sp, #4]
Ltmp93:
LBB1_8:                                 ;   in Loop: Header=BB1_5 Depth=2
; %bb.9:                                ;   in Loop: Header=BB1_5 Depth=2
	.loc	1 59 45                         ; bdf_8x8.c:59:45
	ldr	w8, [sp, #8]
	subs	w8, w8, #1                      ; =1
	str	w8, [sp, #8]
	.loc	1 59 5 is_stmt 0                ; bdf_8x8.c:59:5
	b	LBB1_5
Ltmp94:
LBB1_10:                                ;   in Loop: Header=BB1_3 Depth=1
	.loc	1 67 27 is_stmt 1               ; bdf_8x8.c:67:27
	ldur	x0, [x29, #-16]
	.loc	1 67 31 is_stmt 0               ; bdf_8x8.c:67:31
	ldr	w8, [sp, #4]
	.loc	1 67 10                         ; bdf_8x8.c:67:10
	and	w1, w8, #0xff
	bl	_bg_AddTargetData
Ltmp95:
	.loc	1 67 10                         ; bdf_8x8.c:67:10
	subs	w8, w0, #0                      ; =0
	b.ge	LBB1_12
; %bb.11:
Ltmp96:
	.loc	1 68 7 is_stmt 1                ; bdf_8x8.c:68:7
	stur	wzr, [x29, #-4]
	b	LBB1_15
Ltmp97:
LBB1_12:                                ;   in Loop: Header=BB1_3 Depth=1
; %bb.13:                               ;   in Loop: Header=BB1_3 Depth=1
	.loc	1 56 42                         ; bdf_8x8.c:56:42
	ldr	w8, [sp, #12]
	add	w8, w8, #1                      ; =1
	str	w8, [sp, #12]
	.loc	1 56 3 is_stmt 0                ; bdf_8x8.c:56:3
	b	LBB1_3
Ltmp98:
LBB1_14:
	.loc	1 0 3                           ; bdf_8x8.c:0:3
	mov	w8, #1
	.loc	1 71 3 is_stmt 1                ; bdf_8x8.c:71:3
	stur	w8, [x29, #-4]
LBB1_15:
	.loc	1 72 1                          ; bdf_8x8.c:72:1
	ldur	w0, [x29, #-4]
	ldp	x29, x30, [sp, #48]             ; 16-byte Folded Reload
	add	sp, sp, #64                     ; =64
	ret
Ltmp99:
Lfunc_end1:
	.cfi_endproc
                                        ; -- End function
	.section	__TEXT,__cstring,cstring_literals
l_.str:                                 ; @.str
	.asciz	"Generate8x8Font: Error, glyph width is not multiple of 8, width=%d, encoding=%d"

l_.str.1:                               ; @.str.1
	.asciz	"Generate8x8Font: Error, glyph height is not multiple of 8, height=%d, encoding=%d"

l_.str.2:                               ; @.str.2
	.asciz	"Generate8x8Font: Error, 8x8 conversion, encoding=%d"

l_.str.3:                               ; @.str.3
	.asciz	"Generate8x8Font: Error, glyph size incorrect, size=%d, encoding=%d"

l_.str.4:                               ; @.str.4
	.asciz	"Generate8x8Font: Tile size width=%d height=%d"

l_.str.5:                               ; @.str.5
	.asciz	"Generate8x8Font: Font size %d"

	.file	2 "/Users/songsizhou/Documents/GitHub/u8g2_font_builder/u8g2/tools/font/bdfconv" "./bdf_font.h"
	.file	3 "/Users/songsizhou/Documents/GitHub/u8g2_font_builder/u8g2/tools/font/bdfconv" "./bdf_glyph.h"
	.file	4 "/Library/Developer/CommandLineTools/SDKs/MacOSX.sdk/usr/include/_types" "_uint8_t.h"
	.file	5 "/Library/Developer/CommandLineTools/SDKs/MacOSX.sdk/usr/include" "_stdio.h"
	.file	6 "/Library/Developer/CommandLineTools/SDKs/MacOSX.sdk/usr/include/arm" "_types.h"
	.file	7 "/Library/Developer/CommandLineTools/SDKs/MacOSX.sdk/usr/include/sys" "_types.h"