	.section	__TEXT,__text,regular,pure_instructions
	.build_version macos, 12, 0	sdk_version 12, 0
	.file	1 "/Users/songsizhou/Documents/GitHub/u8g2_font_builder/u8g2/tools/font/bdfconv" "main.c"
	.globl	_get_str_arg                    ; -- Begin function get_str_arg
	.p2align	2
_get_str_arg:                           ; @get_str_arg
Lfunc_begin0:
	.loc	1 46 0                          ; main.c:46:0
	.cfi_startproc
; %bb.0:
	sub	sp, sp, #32                     ; =32
	.cfi_def_cfa_offset 32
	str	x0, [sp, #16]
	str	w1, [sp, #12]
	str	x2, [sp]
Ltmp1:
	.loc	1 47 11 prologue_end            ; main.c:47:11
	ldr	x8, [sp, #16]
	.loc	1 47 10 is_stmt 0               ; main.c:47:10
	ldr	x8, [x8]
	.loc	1 47 9                          ; main.c:47:9
	ldr	x8, [x8]
	.loc	1 47 8                          ; main.c:47:8
	ldrsb	w8, [x8]
Ltmp2:
	.loc	1 47 8                          ; main.c:47:8
	subs	w8, w8, #45                     ; =45
	b.ne	LBB0_7
; %bb.1:
Ltmp3:
	.loc	1 49 13 is_stmt 1               ; main.c:49:13
	ldr	x8, [sp, #16]
	.loc	1 49 12 is_stmt 0               ; main.c:49:12
	ldr	x8, [x8]
	.loc	1 49 11                         ; main.c:49:11
	ldr	x8, [x8]
	.loc	1 49 10                         ; main.c:49:10
	ldrsb	w8, [x8, #1]
	.loc	1 49 25                         ; main.c:49:25
	ldr	w9, [sp, #12]
Ltmp4:
	.loc	1 49 10                         ; main.c:49:10
	subs	w8, w8, w9
	b.ne	LBB0_6
; %bb.2:
Ltmp5:
	.loc	1 51 15 is_stmt 1               ; main.c:51:15
	ldr	x8, [sp, #16]
	.loc	1 51 14 is_stmt 0               ; main.c:51:14
	ldr	x8, [x8]
	.loc	1 51 13                         ; main.c:51:13
	ldr	x8, [x8]
	.loc	1 51 12                         ; main.c:51:12
	ldrsb	w8, [x8, #2]
Ltmp6:
	.loc	1 51 12                         ; main.c:51:12
	cbnz	w8, LBB0_4
; %bb.3:
Ltmp7:
	.loc	1 53 4 is_stmt 1                ; main.c:53:4
	ldr	x9, [sp, #16]
	.loc	1 53 9 is_stmt 0                ; main.c:53:9
	ldr	x8, [x9]
	add	x8, x8, #8                      ; =8
	str	x8, [x9]
	.loc	1 54 14 is_stmt 1               ; main.c:54:14
	ldr	x8, [sp, #16]
	.loc	1 54 13 is_stmt 0               ; main.c:54:13
	ldr	x8, [x8]
	.loc	1 54 12                         ; main.c:54:12
	ldr	x8, [x8]
	.loc	1 54 3                          ; main.c:54:3
	ldr	x9, [sp]
	.loc	1 54 10                         ; main.c:54:10
	str	x8, [x9]
	.loc	1 55 7 is_stmt 1                ; main.c:55:7
	b	LBB0_5
Ltmp8:
LBB0_4:
	.loc	1 58 15                         ; main.c:58:15
	ldr	x8, [sp, #16]
	.loc	1 58 14 is_stmt 0               ; main.c:58:14
	ldr	x8, [x8]
	.loc	1 58 13                         ; main.c:58:13
	ldr	x8, [x8]
	.loc	1 58 20                         ; main.c:58:20
	add	x8, x8, #2                      ; =2
	.loc	1 58 3                          ; main.c:58:3
	ldr	x9, [sp]
	.loc	1 58 10                         ; main.c:58:10
	str	x8, [x9]
Ltmp9:
LBB0_5:
	.loc	1 60 9 is_stmt 1                ; main.c:60:9
	ldr	x9, [sp, #16]
	.loc	1 60 14 is_stmt 0               ; main.c:60:14
	ldr	x8, [x9]
	add	x8, x8, #8                      ; =8
	str	x8, [x9]
	mov	w8, #1
	.loc	1 61 7 is_stmt 1                ; main.c:61:7
	str	w8, [sp, #28]
	b	LBB0_8
Ltmp10:
LBB0_6:
LBB0_7:
	.loc	1 64 3                          ; main.c:64:3
	str	wzr, [sp, #28]
LBB0_8:
	.loc	1 65 1                          ; main.c:65:1
	ldr	w0, [sp, #28]
	add	sp, sp, #32                     ; =32
	ret
Ltmp11:
Lfunc_end0:
	.cfi_endproc
                                        ; -- End function
	.globl	_get_num_arg                    ; -- Begin function get_num_arg
	.p2align	2
_get_num_arg:                           ; @get_num_arg
Lfunc_begin1:
	.loc	1 69 0                          ; main.c:69:0
	.cfi_startproc
; %bb.0:
	sub	sp, sp, #48                     ; =48
	stp	x29, x30, [sp, #32]             ; 16-byte Folded Spill
	add	x29, sp, #32                    ; =32
	.cfi_def_cfa w29, 16
	.cfi_offset w30, -8
	.cfi_offset w29, -16
	str	x0, [sp, #16]
	str	w1, [sp, #12]
	str	x2, [sp]
Ltmp12:
	.loc	1 70 11 prologue_end            ; main.c:70:11
	ldr	x8, [sp, #16]
	.loc	1 70 10 is_stmt 0               ; main.c:70:10
	ldr	x8, [x8]
	.loc	1 70 9                          ; main.c:70:9
	ldr	x8, [x8]
	.loc	1 70 8                          ; main.c:70:8
	ldrsb	w8, [x8]
Ltmp13:
	.loc	1 70 8                          ; main.c:70:8
	subs	w8, w8, #45                     ; =45
	b.ne	LBB1_9
; %bb.1:
Ltmp14:
	.loc	1 72 13 is_stmt 1               ; main.c:72:13
	ldr	x8, [sp, #16]
	.loc	1 72 12 is_stmt 0               ; main.c:72:12
	ldr	x8, [x8]
	.loc	1 72 11                         ; main.c:72:11
	ldr	x8, [x8]
	.loc	1 72 10                         ; main.c:72:10
	ldrsb	w8, [x8, #1]
	.loc	1 72 25                         ; main.c:72:25
	ldr	w9, [sp, #12]
Ltmp15:
	.loc	1 72 10                         ; main.c:72:10
	subs	w8, w8, w9
	b.ne	LBB1_8
; %bb.2:
Ltmp16:
	.loc	1 75 15 is_stmt 1               ; main.c:75:15
	ldr	x8, [sp, #16]
	.loc	1 75 14 is_stmt 0               ; main.c:75:14
	ldr	x8, [x8]
	.loc	1 75 13                         ; main.c:75:13
	ldr	x8, [x8]
	.loc	1 75 12                         ; main.c:75:12
	ldrsb	w8, [x8, #2]
Ltmp17:
	.loc	1 75 12                         ; main.c:75:12
	cbnz	w8, LBB1_6
; %bb.3:
Ltmp18:
	.loc	1 77 11 is_stmt 1               ; main.c:77:11
	ldr	x8, [sp, #16]
	.loc	1 77 10 is_stmt 0               ; main.c:77:10
	ldr	x8, [x8]
	.loc	1 77 7                          ; main.c:77:7
	ldr	x8, [x8, #8]
Ltmp19:
	.loc	1 77 7                          ; main.c:77:7
	cbz	x8, LBB1_5
; %bb.4:
Ltmp20:
	.loc	1 79 6 is_stmt 1                ; main.c:79:6
	ldr	x9, [sp, #16]
	.loc	1 79 11 is_stmt 0               ; main.c:79:11
	ldr	x8, [x9]
	add	x8, x8, #8                      ; =8
	str	x8, [x9]
	.loc	1 80 25 is_stmt 1               ; main.c:80:25
	ldr	x8, [sp, #16]
	.loc	1 80 24 is_stmt 0               ; main.c:80:24
	ldr	x8, [x8]
	.loc	1 80 23                         ; main.c:80:23
	ldr	x0, [x8]
	mov	x1, #0
	mov	w2, #10
	.loc	1 80 14                         ; main.c:80:14
	bl	_strtoul
	.loc	1 80 5                          ; main.c:80:5
	ldr	x8, [sp]
	.loc	1 80 12                         ; main.c:80:12
	str	x0, [x8]
Ltmp21:
LBB1_5:
	.loc	1 82 7 is_stmt 1                ; main.c:82:7
	b	LBB1_7
Ltmp22:
LBB1_6:
	.loc	1 85 23                         ; main.c:85:23
	ldr	x8, [sp, #16]
	.loc	1 85 22 is_stmt 0               ; main.c:85:22
	ldr	x8, [x8]
	.loc	1 85 21                         ; main.c:85:21
	ldr	x8, [x8]
	.loc	1 85 28                         ; main.c:85:28
	add	x0, x8, #2                      ; =2
	mov	x1, #0
	mov	w2, #10
	.loc	1 85 12                         ; main.c:85:12
	bl	_strtoul
	.loc	1 85 3                          ; main.c:85:3
	ldr	x8, [sp]
	.loc	1 85 10                         ; main.c:85:10
	str	x0, [x8]
Ltmp23:
LBB1_7:
	.loc	1 87 9 is_stmt 1                ; main.c:87:9
	ldr	x9, [sp, #16]
	.loc	1 87 14 is_stmt 0               ; main.c:87:14
	ldr	x8, [x9]
	add	x8, x8, #8                      ; =8
	str	x8, [x9]
	mov	w8, #1
	.loc	1 88 7 is_stmt 1                ; main.c:88:7
	stur	w8, [x29, #-4]
	b	LBB1_10
Ltmp24:
LBB1_8:
LBB1_9:
	.loc	1 91 3                          ; main.c:91:3
	stur	wzr, [x29, #-4]
LBB1_10:
	.loc	1 92 1                          ; main.c:92:1
	ldur	w0, [x29, #-4]
	ldp	x29, x30, [sp, #32]             ; 16-byte Folded Reload
	add	sp, sp, #48                     ; =48
	ret
Ltmp25:
Lfunc_end1:
	.cfi_endproc
                                        ; -- End function
	.globl	_get_num_strarg                 ; -- Begin function get_num_strarg
	.p2align	2
_get_num_strarg:                        ; @get_num_strarg
Lfunc_begin2:
	.loc	1 95 0                          ; main.c:95:0
	.cfi_startproc
; %bb.0:
	sub	sp, sp, #48                     ; =48
	stp	x29, x30, [sp, #32]             ; 16-byte Folded Spill
	add	x29, sp, #32                    ; =32
	.cfi_def_cfa w29, 16
	.cfi_offset w30, -8
	.cfi_offset w29, -16
	str	x0, [sp, #16]
	str	x1, [sp, #8]
	str	x2, [sp]
Ltmp26:
	.loc	1 96 11 prologue_end            ; main.c:96:11
	ldr	x8, [sp, #16]
	.loc	1 96 10 is_stmt 0               ; main.c:96:10
	ldr	x8, [x8]
	.loc	1 96 9                          ; main.c:96:9
	ldr	x8, [x8]
	.loc	1 96 8                          ; main.c:96:8
	ldrsb	w8, [x8]
Ltmp27:
	.loc	1 96 8                          ; main.c:96:8
	subs	w8, w8, #45                     ; =45
	b.ne	LBB2_6
; %bb.1:
Ltmp28:
	.loc	1 99 21 is_stmt 1               ; main.c:99:21
	ldr	x8, [sp, #16]
	.loc	1 99 20 is_stmt 0               ; main.c:99:20
	ldr	x8, [x8]
	.loc	1 99 19                         ; main.c:99:19
	ldr	x8, [x8]
	.loc	1 99 26                         ; main.c:99:26
	add	x0, x8, #1                      ; =1
	.loc	1 99 30                         ; main.c:99:30
	ldr	x1, [sp, #8]
	.loc	1 99 10                         ; main.c:99:10
	bl	_strcmp
Ltmp29:
	.loc	1 99 10                         ; main.c:99:10
	cbnz	w0, LBB2_5
; %bb.2:
Ltmp30:
	.loc	1 102 16 is_stmt 1              ; main.c:102:16
	ldr	x8, [sp, #16]
	.loc	1 102 15 is_stmt 0              ; main.c:102:15
	ldr	x8, [x8]
	.loc	1 102 12                        ; main.c:102:12
	ldr	x8, [x8, #8]
Ltmp31:
	.loc	1 102 12                        ; main.c:102:12
	cbz	x8, LBB2_4
; %bb.3:
Ltmp32:
	.loc	1 104 4 is_stmt 1               ; main.c:104:4
	ldr	x9, [sp, #16]
	.loc	1 104 9 is_stmt 0               ; main.c:104:9
	ldr	x8, [x9]
	add	x8, x8, #8                      ; =8
	str	x8, [x9]
	.loc	1 105 23 is_stmt 1              ; main.c:105:23
	ldr	x8, [sp, #16]
	.loc	1 105 22 is_stmt 0              ; main.c:105:22
	ldr	x8, [x8]
	.loc	1 105 21                        ; main.c:105:21
	ldr	x0, [x8]
	mov	x1, #0
	mov	w2, #10
	.loc	1 105 12                        ; main.c:105:12
	bl	_strtoul
	.loc	1 105 3                         ; main.c:105:3
	ldr	x8, [sp]
	.loc	1 105 10                        ; main.c:105:10
	str	x0, [x8]
Ltmp33:
LBB2_4:
	.loc	1 107 9 is_stmt 1               ; main.c:107:9
	ldr	x9, [sp, #16]
	.loc	1 107 14 is_stmt 0              ; main.c:107:14
	ldr	x8, [x9]
	add	x8, x8, #8                      ; =8
	str	x8, [x9]
	mov	w8, #1
	.loc	1 108 7 is_stmt 1               ; main.c:108:7
	stur	w8, [x29, #-4]
	b	LBB2_7
Ltmp34:
LBB2_5:
LBB2_6:
	.loc	1 111 3                         ; main.c:111:3
	stur	wzr, [x29, #-4]
LBB2_7:
	.loc	1 112 1                         ; main.c:112:1
	ldur	w0, [x29, #-4]
	ldp	x29, x30, [sp, #32]             ; 16-byte Folded Reload
	add	sp, sp, #48                     ; =48
	ret
Ltmp35:
Lfunc_end2:
	.cfi_endproc
                                        ; -- End function
	.globl	_is_arg                         ; -- Begin function is_arg
	.p2align	2
_is_arg:                                ; @is_arg
Lfunc_begin3:
	.loc	1 115 0                         ; main.c:115:0
	.cfi_startproc
; %bb.0:
	sub	sp, sp, #32                     ; =32
	.cfi_def_cfa_offset 32
	str	x0, [sp, #16]
	str	w1, [sp, #12]
Ltmp37:
	.loc	1 116 11 prologue_end           ; main.c:116:11
	ldr	x8, [sp, #16]
	.loc	1 116 10 is_stmt 0              ; main.c:116:10
	ldr	x8, [x8]
	.loc	1 116 9                         ; main.c:116:9
	ldr	x8, [x8]
	.loc	1 116 8                         ; main.c:116:8
	ldrsb	w8, [x8]
Ltmp38:
	.loc	1 116 8                         ; main.c:116:8
	subs	w8, w8, #45                     ; =45
	b.ne	LBB3_4
; %bb.1:
Ltmp39:
	.loc	1 118 13 is_stmt 1              ; main.c:118:13
	ldr	x8, [sp, #16]
	.loc	1 118 12 is_stmt 0              ; main.c:118:12
	ldr	x8, [x8]
	.loc	1 118 11                        ; main.c:118:11
	ldr	x8, [x8]
	.loc	1 118 10                        ; main.c:118:10
	ldrsb	w8, [x8, #1]
	.loc	1 118 25                        ; main.c:118:25
	ldr	w9, [sp, #12]
Ltmp40:
	.loc	1 118 10                        ; main.c:118:10
	subs	w8, w8, w9
	b.ne	LBB3_3
; %bb.2:
Ltmp41:
	.loc	1 120 9 is_stmt 1               ; main.c:120:9
	ldr	x9, [sp, #16]
	.loc	1 120 14 is_stmt 0              ; main.c:120:14
	ldr	x8, [x9]
	add	x8, x8, #8                      ; =8
	str	x8, [x9]
	mov	w8, #1
	.loc	1 121 7 is_stmt 1               ; main.c:121:7
	str	w8, [sp, #28]
	b	LBB3_5
Ltmp42:
LBB3_3:
LBB3_4:
	.loc	1 124 3                         ; main.c:124:3
	str	wzr, [sp, #28]
LBB3_5:
	.loc	1 125 1                         ; main.c:125:1
	ldr	w0, [sp, #28]
	add	sp, sp, #32                     ; =32
	ret
Ltmp43:
Lfunc_end3:
	.cfi_endproc
                                        ; -- End function
	.globl	_help                           ; -- Begin function help
	.p2align	2
_help:                                  ; @help
Lfunc_begin4:
	.loc	1 129 0                         ; main.c:129:0
	.cfi_startproc
; %bb.0:
	stp	x29, x30, [sp, #-16]!           ; 16-byte Folded Spill
	mov	x29, sp
	.cfi_def_cfa w29, 16
	.cfi_offset w30, -8
	.cfi_offset w29, -16
Ltmp44:
	.loc	1 0 0 prologue_end              ; main.c:0:0
	adrp	x0, l_.str@PAGE
	add	x0, x0, l_.str@PAGEOFF
	.loc	1 130 3                         ; main.c:130:3
	bl	_printf
	.loc	1 0 0 is_stmt 0                 ; main.c:0:0
	adrp	x0, l_.str.1@PAGE
	add	x0, x0, l_.str.1@PAGEOFF
	.loc	1 131 3 is_stmt 1               ; main.c:131:3
	bl	_printf
	.loc	1 0 0 is_stmt 0                 ; main.c:0:0
	adrp	x0, l_.str.2@PAGE
	add	x0, x0, l_.str.2@PAGEOFF
	.loc	1 132 3 is_stmt 1               ; main.c:132:3
	bl	_printf
	.loc	1 0 0 is_stmt 0                 ; main.c:0:0
	adrp	x0, l_.str.3@PAGE
	add	x0, x0, l_.str.3@PAGEOFF
	.loc	1 133 3 is_stmt 1               ; main.c:133:3
	bl	_printf
	.loc	1 0 0 is_stmt 0                 ; main.c:0:0
	adrp	x0, l_.str.4@PAGE
	add	x0, x0, l_.str.4@PAGEOFF
	.loc	1 134 3 is_stmt 1               ; main.c:134:3
	bl	_printf
	.loc	1 0 0 is_stmt 0                 ; main.c:0:0
	adrp	x0, l_.str.5@PAGE
	add	x0, x0, l_.str.5@PAGEOFF
	.loc	1 135 3 is_stmt 1               ; main.c:135:3
	bl	_printf
	.loc	1 0 0 is_stmt 0                 ; main.c:0:0
	adrp	x0, l_.str.6@PAGE
	add	x0, x0, l_.str.6@PAGEOFF
	.loc	1 136 3 is_stmt 1               ; main.c:136:3
	bl	_printf
	.loc	1 0 0 is_stmt 0                 ; main.c:0:0
	adrp	x0, l_.str.7@PAGE
	add	x0, x0, l_.str.7@PAGEOFF
	.loc	1 137 3 is_stmt 1               ; main.c:137:3
	bl	_printf
	.loc	1 0 0 is_stmt 0                 ; main.c:0:0
	adrp	x0, l_.str.8@PAGE
	add	x0, x0, l_.str.8@PAGEOFF
	.loc	1 138 3 is_stmt 1               ; main.c:138:3
	bl	_printf
	.loc	1 0 0 is_stmt 0                 ; main.c:0:0
	adrp	x0, l_.str.9@PAGE
	add	x0, x0, l_.str.9@PAGEOFF
	.loc	1 139 3 is_stmt 1               ; main.c:139:3
	bl	_printf
	.loc	1 0 0 is_stmt 0                 ; main.c:0:0
	adrp	x0, l_.str.10@PAGE
	add	x0, x0, l_.str.10@PAGEOFF
	.loc	1 140 3 is_stmt 1               ; main.c:140:3
	bl	_printf
	.loc	1 0 0 is_stmt 0                 ; main.c:0:0
	adrp	x0, l_.str.11@PAGE
	add	x0, x0, l_.str.11@PAGEOFF
	.loc	1 141 3 is_stmt 1               ; main.c:141:3
	bl	_printf
	.loc	1 0 0 is_stmt 0                 ; main.c:0:0
	adrp	x0, l_.str.12@PAGE
	add	x0, x0, l_.str.12@PAGEOFF
	.loc	1 142 3 is_stmt 1               ; main.c:142:3
	bl	_printf
	.loc	1 0 0 is_stmt 0                 ; main.c:0:0
	adrp	x0, l_.str.13@PAGE
	add	x0, x0, l_.str.13@PAGEOFF
	.loc	1 143 3 is_stmt 1               ; main.c:143:3
	bl	_printf
	.loc	1 0 0 is_stmt 0                 ; main.c:0:0
	adrp	x0, l_.str.14@PAGE
	add	x0, x0, l_.str.14@PAGEOFF
	.loc	1 145 3 is_stmt 1               ; main.c:145:3
	bl	_printf
	.loc	1 0 0 is_stmt 0                 ; main.c:0:0
	adrp	x0, l_.str.15@PAGE
	add	x0, x0, l_.str.15@PAGEOFF
	.loc	1 146 3 is_stmt 1               ; main.c:146:3
	bl	_printf
	.loc	1 0 0 is_stmt 0                 ; main.c:0:0
	adrp	x0, l_.str.16@PAGE
	add	x0, x0, l_.str.16@PAGEOFF
	.loc	1 147 3 is_stmt 1               ; main.c:147:3
	bl	_printf
	.loc	1 0 0 is_stmt 0                 ; main.c:0:0
	adrp	x0, l_.str.17@PAGE
	add	x0, x0, l_.str.17@PAGEOFF
	.loc	1 148 3 is_stmt 1               ; main.c:148:3
	bl	_printf
	.loc	1 0 0 is_stmt 0                 ; main.c:0:0
	adrp	x0, l_.str.18@PAGE
	add	x0, x0, l_.str.18@PAGEOFF
	.loc	1 149 3 is_stmt 1               ; main.c:149:3
	bl	_printf
	.loc	1 0 0 is_stmt 0                 ; main.c:0:0
	adrp	x0, l_.str.19@PAGE
	add	x0, x0, l_.str.19@PAGEOFF
	.loc	1 150 3 is_stmt 1               ; main.c:150:3
	bl	_printf
	.loc	1 0 0 is_stmt 0                 ; main.c:0:0
	adrp	x0, l_.str.20@PAGE
	add	x0, x0, l_.str.20@PAGEOFF
	.loc	1 151 3 is_stmt 1               ; main.c:151:3
	bl	_printf
	.loc	1 0 0 is_stmt 0                 ; main.c:0:0
	adrp	x0, l_.str.21@PAGE
	add	x0, x0, l_.str.21@PAGEOFF
	.loc	1 152 3 is_stmt 1               ; main.c:152:3
	bl	_printf
	.loc	1 0 0 is_stmt 0                 ; main.c:0:0
	adrp	x0, l_.str.22@PAGE
	add	x0, x0, l_.str.22@PAGEOFF
	.loc	1 154 3 is_stmt 1               ; main.c:154:3
	bl	_printf
	.loc	1 0 0 is_stmt 0                 ; main.c:0:0
	adrp	x0, l_.str.23@PAGE
	add	x0, x0, l_.str.23@PAGEOFF
	.loc	1 155 3 is_stmt 1               ; main.c:155:3
	bl	_printf
	.loc	1 0 0 is_stmt 0                 ; main.c:0:0
	adrp	x0, l_.str.24@PAGE
	add	x0, x0, l_.str.24@PAGEOFF
	.loc	1 156 3 is_stmt 1               ; main.c:156:3
	bl	_printf
	.loc	1 0 0 is_stmt 0                 ; main.c:0:0
	adrp	x0, l_.str.25@PAGE
	add	x0, x0, l_.str.25@PAGEOFF
	.loc	1 157 3 is_stmt 1               ; main.c:157:3
	bl	_printf
	.loc	1 0 0 is_stmt 0                 ; main.c:0:0
	adrp	x0, l_.str.26@PAGE
	add	x0, x0, l_.str.26@PAGEOFF
	.loc	1 158 3 is_stmt 1               ; main.c:158:3
	bl	_printf
	.loc	1 0 0 is_stmt 0                 ; main.c:0:0
	adrp	x0, l_.str.27@PAGE
	add	x0, x0, l_.str.27@PAGEOFF
	.loc	1 159 3 is_stmt 1               ; main.c:159:3
	bl	_printf
	.loc	1 0 0 is_stmt 0                 ; main.c:0:0
	adrp	x0, l_.str.28@PAGE
	add	x0, x0, l_.str.28@PAGEOFF
	.loc	1 160 3 is_stmt 1               ; main.c:160:3
	bl	_printf
	.loc	1 0 0 is_stmt 0                 ; main.c:0:0
	adrp	x0, l_.str.29@PAGE
	add	x0, x0, l_.str.29@PAGEOFF
	.loc	1 161 3 is_stmt 1               ; main.c:161:3
	bl	_printf
	.loc	1 0 0 is_stmt 0                 ; main.c:0:0
	adrp	x0, l_.str.30@PAGE
	add	x0, x0, l_.str.30@PAGEOFF
	.loc	1 162 3 is_stmt 1               ; main.c:162:3
	bl	_printf
	.loc	1 0 0 is_stmt 0                 ; main.c:0:0
	adrp	x0, l_.str.31@PAGE
	add	x0, x0, l_.str.31@PAGEOFF
	.loc	1 163 3 is_stmt 1               ; main.c:163:3
	bl	_printf
	.loc	1 0 0 is_stmt 0                 ; main.c:0:0
	adrp	x0, l_.str.32@PAGE
	add	x0, x0, l_.str.32@PAGEOFF
	.loc	1 164 3 is_stmt 1               ; main.c:164:3
	bl	_printf
	.loc	1 0 0 is_stmt 0                 ; main.c:0:0
	adrp	x0, l_.str.33@PAGE
	add	x0, x0, l_.str.33@PAGEOFF
	.loc	1 165 3 is_stmt 1               ; main.c:165:3
	bl	_printf
	.loc	1 0 0 is_stmt 0                 ; main.c:0:0
	adrp	x0, l_.str.34@PAGE
	add	x0, x0, l_.str.34@PAGEOFF
	.loc	1 166 3 is_stmt 1               ; main.c:166:3
	bl	_printf
	.loc	1 0 0 is_stmt 0                 ; main.c:0:0
	adrp	x0, l_.str.35@PAGE
	add	x0, x0, l_.str.35@PAGEOFF
	.loc	1 167 3 is_stmt 1               ; main.c:167:3
	bl	_printf
	.loc	1 0 0 is_stmt 0                 ; main.c:0:0
	adrp	x0, l_.str.36@PAGE
	add	x0, x0, l_.str.36@PAGEOFF
	.loc	1 169 3 is_stmt 1               ; main.c:169:3
	bl	_printf
	.loc	1 0 0 is_stmt 0                 ; main.c:0:0
	adrp	x0, l_.str.37@PAGE
	add	x0, x0, l_.str.37@PAGEOFF
	.loc	1 171 3 is_stmt 1               ; main.c:171:3
	bl	_printf
	.loc	1 0 0 is_stmt 0                 ; main.c:0:0
	adrp	x0, l_.str.38@PAGE
	add	x0, x0, l_.str.38@PAGEOFF
	.loc	1 172 3 is_stmt 1               ; main.c:172:3
	bl	_printf
	.loc	1 0 0 is_stmt 0                 ; main.c:0:0
	adrp	x0, l_.str.39@PAGE
	add	x0, x0, l_.str.39@PAGEOFF
	.loc	1 173 3 is_stmt 1               ; main.c:173:3
	bl	_printf
	.loc	1 0 0 is_stmt 0                 ; main.c:0:0
	adrp	x0, l_.str.40@PAGE
	add	x0, x0, l_.str.40@PAGEOFF
	.loc	1 174 3 is_stmt 1               ; main.c:174:3
	bl	_printf
	.loc	1 0 0 is_stmt 0                 ; main.c:0:0
	adrp	x0, l_.str.41@PAGE
	add	x0, x0, l_.str.41@PAGEOFF
	.loc	1 175 3 is_stmt 1               ; main.c:175:3
	bl	_printf
	.loc	1 0 0 is_stmt 0                 ; main.c:0:0
	adrp	x0, l_.str.42@PAGE
	add	x0, x0, l_.str.42@PAGEOFF
	.loc	1 176 3 is_stmt 1               ; main.c:176:3
	bl	_printf
	.loc	1 0 0 is_stmt 0                 ; main.c:0:0
	adrp	x0, l_.str.43@PAGE
	add	x0, x0, l_.str.43@PAGEOFF
	.loc	1 177 3 is_stmt 1               ; main.c:177:3
	bl	_printf
	.loc	1 0 0 is_stmt 0                 ; main.c:0:0
	adrp	x0, l_.str.44@PAGE
	add	x0, x0, l_.str.44@PAGEOFF
	.loc	1 178 3 is_stmt 1               ; main.c:178:3
	bl	_printf
	.loc	1 0 0 is_stmt 0                 ; main.c:0:0
	adrp	x0, l_.str.45@PAGE
	add	x0, x0, l_.str.45@PAGEOFF
	.loc	1 179 3 is_stmt 1               ; main.c:179:3
	bl	_printf
	.loc	1 0 0 is_stmt 0                 ; main.c:0:0
	adrp	x0, l_.str.46@PAGE
	add	x0, x0, l_.str.46@PAGEOFF
	.loc	1 180 3 is_stmt 1               ; main.c:180:3
	bl	_printf
	.loc	1 182 1                         ; main.c:182:1
	ldp	x29, x30, [sp], #16             ; 16-byte Folded Reload
	ret
Ltmp45:
Lfunc_end4:
	.cfi_endproc
                                        ; -- End function
	.globl	_tga_get_line_height            ; -- Begin function tga_get_line_height
	.p2align	2
_tga_get_line_height:                   ; @tga_get_line_height
Lfunc_begin5:
	.loc	1 205 0                         ; main.c:205:0
	.cfi_startproc
; %bb.0:
	sub	sp, sp, #48                     ; =48
	stp	x29, x30, [sp, #32]             ; 16-byte Folded Spill
	add	x29, sp, #32                    ; =32
	.cfi_def_cfa w29, 16
	.cfi_offset w30, -8
	.cfi_offset w29, -16
	str	x0, [sp, #16]
	str	x1, [sp, #8]
Ltmp46:
	.loc	1 207 16 prologue_end           ; main.c:207:16
	ldr	x8, [sp, #16]
	.loc	1 207 30 is_stmt 0              ; main.c:207:30
	ldr	x0, [x8, #1288]
	.loc	1 207 3                         ; main.c:207:3
	bl	_tga_set_font
	.loc	1 208 7 is_stmt 1               ; main.c:208:7
	bl	_tga_get_char_height
	.loc	1 208 5 is_stmt 0               ; main.c:208:5
	str	w0, [sp, #4]
	.loc	1 209 16 is_stmt 1              ; main.c:209:16
	ldr	x8, [sp, #8]
	.loc	1 209 20 is_stmt 0              ; main.c:209:20
	ldr	x0, [x8, #1288]
	.loc	1 209 3                         ; main.c:209:3
	bl	_tga_set_font
Ltmp47:
	.loc	1 210 8 is_stmt 1               ; main.c:210:8
	ldr	w8, [sp, #4]
	str	w8, [sp]                        ; 4-byte Folded Spill
	.loc	1 210 12 is_stmt 0              ; main.c:210:12
	bl	_tga_get_char_height
	ldr	w8, [sp]                        ; 4-byte Folded Reload
Ltmp48:
	.loc	1 210 8                         ; main.c:210:8
	subs	w8, w8, w0
	b.hs	LBB5_2
; %bb.1:
Ltmp49:
	.loc	1 211 12 is_stmt 1              ; main.c:211:12
	bl	_tga_get_char_height
	.loc	1 211 5 is_stmt 0               ; main.c:211:5
	stur	w0, [x29, #-4]
	b	LBB5_3
Ltmp50:
LBB5_2:
	.loc	1 212 10 is_stmt 1              ; main.c:212:10
	ldr	w8, [sp, #4]
	.loc	1 212 3 is_stmt 0               ; main.c:212:3
	stur	w8, [x29, #-4]
LBB5_3:
	.loc	1 213 1 is_stmt 1               ; main.c:213:1
	ldur	w0, [x29, #-4]
	ldp	x29, x30, [sp, #32]             ; 16-byte Folded Reload
	add	sp, sp, #48                     ; =48
	ret
Ltmp51:
Lfunc_end5:
	.cfi_endproc
                                        ; -- End function
	.globl	_tga_draw_font_line             ; -- Begin function tga_draw_font_line
	.p2align	2
_tga_draw_font_line:                    ; @tga_draw_font_line
Lfunc_begin6:
	.loc	1 216 0                         ; main.c:216:0
	.cfi_startproc
; %bb.0:
	sub	sp, sp, #160                    ; =160
	stp	x29, x30, [sp, #144]            ; 16-byte Folded Spill
	add	x29, sp, #144                   ; =144
	.cfi_def_cfa w29, 16
	.cfi_offset w30, -8
	.cfi_offset w29, -16
	adrp	x8, ___stack_chk_guard@GOTPAGE
	ldr	x8, [x8, ___stack_chk_guard@GOTPAGEOFF]
	ldr	x8, [x8]
	stur	x8, [x29, #-8]
	stur	w0, [x29, #-48]
	stur	x1, [x29, #-56]
	stur	x2, [x29, #-64]
	str	x3, [sp, #72]
	str	x4, [sp, #64]
	mov	w8, #1
Ltmp52:
	.loc	1 222 12 prologue_end           ; main.c:222:12
	str	w8, [sp, #48]
Ltmp53:
	.loc	1 223 10                        ; main.c:223:10
	str	xzr, [sp, #56]
LBB6_1:                                 ; =>This Inner Loop Header: Depth=1
Ltmp54:
	.loc	1 223 15 is_stmt 0              ; main.c:223:15
	ldr	x9, [sp, #56]
	mov	w8, #0
	.loc	1 223 21                        ; main.c:223:21
	subs	x9, x9, #16                     ; =16
	str	w8, [sp, #44]                   ; 4-byte Folded Spill
	b.ge	LBB6_3
; %bb.2:                                ;   in Loop: Header=BB6_1 Depth=1
	.loc	1 223 24                        ; main.c:223:24
	ldr	w8, [sp, #48]
	.loc	1 223 33                        ; main.c:223:33
	subs	w8, w8, #0                      ; =0
	cset	w8, ne
	str	w8, [sp, #44]                   ; 4-byte Folded Spill
Ltmp55:
LBB6_3:                                 ;   in Loop: Header=BB6_1 Depth=1
	.loc	1 0 33                          ; main.c:0:33
	ldr	w8, [sp, #44]                   ; 4-byte Folded Reload
	.loc	1 223 3                         ; main.c:223:3
	tbz	w8, #0, LBB6_8
; %bb.4:                                ;   in Loop: Header=BB6_1 Depth=1
Ltmp56:
	.loc	1 225 29 is_stmt 1              ; main.c:225:29
	ldr	x8, [sp, #56]
	.loc	1 225 31 is_stmt 0              ; main.c:225:31
	ldur	x9, [x29, #-56]
	.loc	1 225 30                        ; main.c:225:30
	add	x8, x8, x9
                                        ; kill: def $w8 killed $w8 killed $x8
	.loc	1 225 10                        ; main.c:225:10
	and	w0, w8, #0xffff
	bl	_tga_get_glyph_data
Ltmp57:
	.loc	1 225 10                        ; main.c:225:10
	cbz	x0, LBB6_6
; %bb.5:                                ;   in Loop: Header=BB6_1 Depth=1
Ltmp58:
	.loc	1 226 11 is_stmt 1              ; main.c:226:11
	str	wzr, [sp, #48]
Ltmp59:
LBB6_6:                                 ;   in Loop: Header=BB6_1 Depth=1
; %bb.7:                                ;   in Loop: Header=BB6_1 Depth=1
	.loc	1 223 40                        ; main.c:223:40
	ldr	x8, [sp, #56]
	add	x8, x8, #1                      ; =1
	str	x8, [sp, #56]
	.loc	1 223 3 is_stmt 0               ; main.c:223:3
	b	LBB6_1
Ltmp60:
LBB6_8:
	.loc	1 229 8 is_stmt 1               ; main.c:229:8
	ldr	w8, [sp, #48]
Ltmp61:
	.loc	1 229 8 is_stmt 0               ; main.c:229:8
	cbz	w8, LBB6_10
; %bb.9:
Ltmp62:
	.loc	1 230 5 is_stmt 1               ; main.c:230:5
	stur	wzr, [x29, #-44]
	b	LBB6_19
Ltmp63:
LBB6_10:
	.loc	1 232 3                         ; main.c:232:3
	ldur	x10, [x29, #-56]
	ldur	x8, [x29, #-56]
	sub	x0, x29, #40                    ; =40
	mov	w1, #0
	mov	x2, #32
	.loc	1 0 0 is_stmt 0                 ; main.c:0:0
	adrp	x3, l_.str.48@PAGE
	add	x3, x3, l_.str.48@PAGEOFF
	.loc	1 232 3                         ; main.c:232:3
	mov	x9, sp
	str	x10, [x9]
	str	x8, [x9, #8]
	bl	___sprintf_chk
	.loc	1 0 0                           ; main.c:0:0
	adrp	x8, _left_margin@PAGE
	.loc	1 234 7 is_stmt 1               ; main.c:234:7
	ldr	x8, [x8, _left_margin@PAGEOFF]
                                        ; kill: def $w8 killed $w8 killed $x8
	.loc	1 234 5 is_stmt 0               ; main.c:234:5
	str	w8, [sp, #52]
Ltmp64:
	.loc	1 235 8 is_stmt 1               ; main.c:235:8
	ldur	x8, [x29, #-64]
Ltmp65:
	.loc	1 235 8 is_stmt 0               ; main.c:235:8
	cbz	x8, LBB6_14
; %bb.11:
Ltmp66:
	.loc	1 237 10 is_stmt 1              ; main.c:237:10
	ldur	x8, [x29, #-64]
	.loc	1 237 24 is_stmt 0              ; main.c:237:24
	ldr	x8, [x8, #1288]
Ltmp67:
	.loc	1 237 10                        ; main.c:237:10
	cbz	x8, LBB6_13
; %bb.12:
Ltmp68:
	.loc	1 239 20 is_stmt 1              ; main.c:239:20
	ldur	x8, [x29, #-64]
	.loc	1 239 34 is_stmt 0              ; main.c:239:34
	ldr	x0, [x8, #1288]
	.loc	1 239 7                         ; main.c:239:7
	bl	_tga_set_font
	.loc	1 240 28 is_stmt 1              ; main.c:240:28
	ldr	w0, [sp, #52]
	.loc	1 240 31 is_stmt 0              ; main.c:240:31
	ldur	w1, [x29, #-48]
	sub	x2, x29, #40                    ; =40
	mov	w4, #0
	.loc	1 240 12                        ; main.c:240:12
	mov	x3, x4
	bl	_tga_draw_string
	.loc	1 240 9                         ; main.c:240:9
	ldr	w8, [sp, #52]
	add	w8, w8, w0
	str	w8, [sp, #52]
Ltmp69:
LBB6_13:
LBB6_14:
	.loc	1 243 5 is_stmt 1               ; main.c:243:5
	ldr	w8, [sp, #52]
	add	w8, w8, #4                      ; =4
	str	w8, [sp, #52]
	.loc	1 245 16                        ; main.c:245:16
	ldr	x8, [sp, #72]
	.loc	1 245 20 is_stmt 0              ; main.c:245:20
	ldr	x0, [x8, #1288]
	.loc	1 245 3                         ; main.c:245:3
	bl	_tga_set_font
Ltmp70:
	.loc	1 246 10 is_stmt 1              ; main.c:246:10
	str	xzr, [sp, #56]
LBB6_15:                                ; =>This Inner Loop Header: Depth=1
Ltmp71:
	.loc	1 246 15 is_stmt 0              ; main.c:246:15
	ldr	x8, [sp, #56]
	.loc	1 246 18                        ; main.c:246:18
	ldr	x9, [sp, #64]
Ltmp72:
	.loc	1 246 3                         ; main.c:246:3
	subs	x8, x8, x9
	b.ge	LBB6_18
; %bb.16:                               ;   in Loop: Header=BB6_15 Depth=1
Ltmp73:
	.loc	1 248 20 is_stmt 1              ; main.c:248:20
	ldr	w8, [sp, #52]
                                        ; kill: def $x8 killed $w8
	str	x8, [sp, #32]                   ; 8-byte Folded Spill
	.loc	1 248 25 is_stmt 0              ; main.c:248:25
	bl	_tga_get_char_width
	ldr	x8, [sp, #32]                   ; 8-byte Folded Reload
	.loc	1 248 45                        ; main.c:248:45
	add	w10, w0, #2                     ; =2
                                        ; implicit-def: $x9
	.loc	1 248 24                        ; main.c:248:24
	mov	x9, x10
	sxtw	x9, w9
	.loc	1 248 49                        ; main.c:248:49
	ldr	x10, [sp, #56]
	.loc	1 248 48                        ; main.c:248:48
	mul	x9, x9, x10
	.loc	1 248 22                        ; main.c:248:22
	add	x8, x8, x9
	.loc	1 248 20                        ; main.c:248:20
	mov	x0, x8
	.loc	1 248 51                        ; main.c:248:51
	ldur	w1, [x29, #-48]
	.loc	1 248 53                        ; main.c:248:53
	ldur	x8, [x29, #-56]
	.loc	1 248 63                        ; main.c:248:63
	ldr	x9, [sp, #56]
	.loc	1 248 62                        ; main.c:248:62
	add	x8, x8, x9
	.loc	1 0 0                           ; main.c:0:0
	adrp	x9, _font_picture_extra_info@PAGE
	.loc	1 248 66                        ; main.c:248:66
	ldr	w3, [x9, _font_picture_extra_info@PAGEOFF]
                                        ; kill: def $w8 killed $w8 killed $x8
	.loc	1 248 5                         ; main.c:248:5
	and	w2, w8, #0xffff
	bl	_tga_draw_glyph
Ltmp74:
; %bb.17:                               ;   in Loop: Header=BB6_15 Depth=1
	.loc	1 246 36 is_stmt 1              ; main.c:246:36
	ldr	x8, [sp, #56]
	add	x8, x8, #1                      ; =1
	str	x8, [sp, #56]
	.loc	1 246 3 is_stmt 0               ; main.c:246:3
	b	LBB6_15
Ltmp75:
LBB6_18:
	.loc	1 0 0                           ; main.c:0:0
	adrp	x8, _left_margin@PAGE
	.loc	1 251 10 is_stmt 1              ; main.c:251:10
	ldr	x8, [x8, _left_margin@PAGEOFF]
	.loc	1 251 24 is_stmt 0              ; main.c:251:24
	ldr	w9, [sp, #52]
                                        ; kill: def $x9 killed $w9
	.loc	1 251 22                        ; main.c:251:22
	add	x8, x8, x9
	str	x8, [sp, #24]                   ; 8-byte Folded Spill
	.loc	1 251 29                        ; main.c:251:29
	bl	_tga_get_char_width
	ldr	x8, [sp, #24]                   ; 8-byte Folded Reload
	.loc	1 251 49                        ; main.c:251:49
	add	w10, w0, #2                     ; =2
                                        ; implicit-def: $x9
	.loc	1 251 28                        ; main.c:251:28
	mov	x9, x10
	sxtw	x9, w9
	.loc	1 251 53                        ; main.c:251:53
	ldr	x10, [sp, #64]
	.loc	1 251 52                        ; main.c:251:52
	mul	x9, x9, x10
	.loc	1 251 26                        ; main.c:251:26
	add	x8, x8, x9
                                        ; kill: def $w8 killed $w8 killed $x8
	.loc	1 251 3                         ; main.c:251:3
	stur	w8, [x29, #-44]
LBB6_19:
	.loc	1 252 1 is_stmt 1               ; main.c:252:1
	ldur	w8, [x29, #-44]
	str	w8, [sp, #20]                   ; 4-byte Folded Spill
	adrp	x8, ___stack_chk_guard@GOTPAGE
	ldr	x8, [x8, ___stack_chk_guard@GOTPAGEOFF]
	ldr	x8, [x8]
	ldur	x9, [x29, #-8]
	subs	x8, x8, x9
	b.ne	LBB6_21
; %bb.20:
	.loc	1 0 1 is_stmt 0                 ; main.c:0:1
	ldr	w0, [sp, #20]                   ; 4-byte Folded Reload
	.loc	1 252 1                         ; main.c:252:1
	ldp	x29, x30, [sp, #144]            ; 16-byte Folded Reload
	add	sp, sp, #160                    ; =160
	ret
LBB6_21:
	.loc	1 0 0                           ; main.c:0:0
	bl	___stack_chk_fail
Ltmp76:
Lfunc_end6:
	.cfi_endproc
                                        ; -- End function
	.globl	_tga_draw_font_info             ; -- Begin function tga_draw_font_info
	.p2align	2
_tga_draw_font_info:                    ; @tga_draw_font_info
Lfunc_begin7:
	.loc	1 255 0 is_stmt 1               ; main.c:255:0
	.cfi_startproc
; %bb.0:
	sub	sp, sp, #112                    ; =112
	stp	x29, x30, [sp, #96]             ; 16-byte Folded Spill
	add	x29, sp, #96                    ; =96
	.cfi_def_cfa w29, 16
	.cfi_offset w30, -8
	.cfi_offset w29, -16
	stur	w0, [x29, #-8]
	stur	x1, [x29, #-16]
	stur	x2, [x29, #-24]
	stur	x3, [x29, #-32]
Ltmp77:
	.loc	1 260 16 prologue_end           ; main.c:260:16
	stur	wzr, [x29, #-44]
	.loc	1 261 33                        ; main.c:261:33
	ldur	x0, [x29, #-32]
	mov	x1, #65
	.loc	1 261 11 is_stmt 0              ; main.c:261:11
	bl	_bf_GetIndexByEncoding
	.loc	1 261 9                         ; main.c:261:9
	stur	w0, [x29, #-40]
Ltmp78:
	.loc	1 262 8 is_stmt 1               ; main.c:262:8
	ldur	w8, [x29, #-40]
Ltmp79:
	.loc	1 262 8 is_stmt 0               ; main.c:262:8
	tbnz	w8, #31, LBB7_2
; %bb.1:
Ltmp80:
	.loc	1 264 20 is_stmt 1              ; main.c:264:20
	ldur	x8, [x29, #-32]
	.loc	1 264 24 is_stmt 0              ; main.c:264:24
	ldr	x8, [x8, #8]
	.loc	1 264 35                        ; main.c:264:35
	ldursw	x9, [x29, #-40]
	.loc	1 264 20                        ; main.c:264:20
	ldr	x8, [x8, x9, lsl #3]
	.loc	1 264 47                        ; main.c:264:47
	ldr	x8, [x8, #48]
	.loc	1 264 49                        ; main.c:264:49
	ldur	x9, [x29, #-32]
	.loc	1 264 53                        ; main.c:264:53
	ldr	x9, [x9, #8]
	.loc	1 264 64                        ; main.c:264:64
	ldursw	x10, [x29, #-40]
	.loc	1 264 49                        ; main.c:264:49
	ldr	x9, [x9, x10, lsl #3]
	.loc	1 264 76                        ; main.c:264:76
	ldr	x9, [x9, #64]
	.loc	1 264 48                        ; main.c:264:48
	add	x8, x8, x9
                                        ; kill: def $w8 killed $w8 killed $x8
	.loc	1 264 18                        ; main.c:264:18
	stur	w8, [x29, #-44]
Ltmp81:
LBB7_2:
	.loc	1 267 8 is_stmt 1               ; main.c:267:8
	ldur	x8, [x29, #-24]
Ltmp82:
	.loc	1 267 8 is_stmt 0               ; main.c:267:8
	cbz	x8, LBB7_6
; %bb.3:
Ltmp83:
	.loc	1 269 10 is_stmt 1              ; main.c:269:10
	ldur	x8, [x29, #-24]
	.loc	1 269 24 is_stmt 0              ; main.c:269:24
	ldr	x8, [x8, #1288]
Ltmp84:
	.loc	1 269 10                        ; main.c:269:10
	cbz	x8, LBB7_5
; %bb.4:
Ltmp85:
	.loc	1 272 20 is_stmt 1              ; main.c:272:20
	ldur	x8, [x29, #-24]
	.loc	1 272 34 is_stmt 0              ; main.c:272:34
	ldr	x0, [x8, #1288]
	.loc	1 272 7                         ; main.c:272:7
	bl	_tga_set_font
	.loc	1 274 13 is_stmt 1              ; main.c:274:13
	bl	_tga_get_char_height
	.loc	1 274 34 is_stmt 0              ; main.c:274:34
	add	w9, w0, #1                      ; =1
	.loc	1 274 9                         ; main.c:274:9
	ldur	w8, [x29, #-8]
	add	w8, w8, w9
	stur	w8, [x29, #-8]
	.loc	1 0 0                           ; main.c:0:0
	adrp	x8, _left_margin@PAGE
	str	x8, [sp, #32]                   ; 8-byte Folded Spill
	.loc	1 275 11 is_stmt 1              ; main.c:275:11
	ldr	x8, [x8, _left_margin@PAGEOFF]
                                        ; kill: def $w8 killed $w8 killed $x8
	.loc	1 275 9 is_stmt 0               ; main.c:275:9
	stur	w8, [x29, #-36]
	.loc	1 276 28 is_stmt 1              ; main.c:276:28
	ldur	w0, [x29, #-36]
	.loc	1 276 31 is_stmt 0              ; main.c:276:31
	ldur	w1, [x29, #-8]
	.loc	1 276 34                        ; main.c:276:34
	ldur	x2, [x29, #-16]
	mov	w4, #0
	str	w4, [sp, #48]                   ; 4-byte Folded Spill
	.loc	1 276 12                        ; main.c:276:12
	mov	x3, x4
	bl	_tga_draw_string
	.loc	1 276 9                         ; main.c:276:9
	ldur	w8, [x29, #-36]
	add	w8, w8, w0
	stur	w8, [x29, #-36]
	.loc	1 278 13 is_stmt 1              ; main.c:278:13
	bl	_tga_get_char_height
	.loc	1 278 34 is_stmt 0              ; main.c:278:34
	add	w9, w0, #1                      ; =1
	.loc	1 278 9                         ; main.c:278:9
	ldur	w8, [x29, #-8]
	add	w8, w8, w9
	stur	w8, [x29, #-8]
	.loc	1 279 7 is_stmt 1               ; main.c:279:7
	bl	_tga_get_char_width
	str	w0, [sp, #20]                   ; 4-byte Folded Spill
	bl	_tga_get_char_height
	ldr	w11, [sp, #20]                  ; 4-byte Folded Reload
	ldr	w1, [sp, #48]                   ; 4-byte Folded Reload
	mov	x10, x0
	.loc	1 0 0 is_stmt 0                 ; main.c:0:0
	adrp	x0, _tga_draw_font_info.s@PAGE
	add	x0, x0, _tga_draw_font_info.s@PAGEOFF
	str	x0, [sp, #40]                   ; 8-byte Folded Spill
	mov	x2, #256
	str	x2, [sp, #24]                   ; 8-byte Folded Spill
	adrp	x3, l_.str.49@PAGE
	add	x3, x3, l_.str.49@PAGEOFF
	.loc	1 279 7                         ; main.c:279:7
	mov	x9, sp
                                        ; implicit-def: $x8
	mov	x8, x11
	str	x8, [x9]
                                        ; implicit-def: $x8
	mov	x8, x10
	str	x8, [x9, #8]
	bl	___sprintf_chk
	ldr	x8, [sp, #32]                   ; 8-byte Folded Reload
	ldr	x2, [sp, #40]                   ; 8-byte Folded Reload
	ldr	w4, [sp, #48]                   ; 4-byte Folded Reload
	.loc	1 280 11 is_stmt 1              ; main.c:280:11
	ldr	x8, [x8, _left_margin@PAGEOFF]
                                        ; kill: def $w8 killed $w8 killed $x8
	.loc	1 280 9 is_stmt 0               ; main.c:280:9
	stur	w8, [x29, #-36]
	.loc	1 281 28 is_stmt 1              ; main.c:281:28
	ldur	w0, [x29, #-36]
	.loc	1 281 31 is_stmt 0              ; main.c:281:31
	ldur	w1, [x29, #-8]
	.loc	1 281 12                        ; main.c:281:12
	mov	x3, x4
	bl	_tga_draw_string
	.loc	1 281 9                         ; main.c:281:9
	ldur	w8, [x29, #-36]
	add	w8, w8, w0
	stur	w8, [x29, #-36]
	.loc	1 283 13 is_stmt 1              ; main.c:283:13
	bl	_tga_get_char_height
	ldr	x2, [sp, #24]                   ; 8-byte Folded Reload
	ldr	w1, [sp, #48]                   ; 4-byte Folded Reload
	mov	x8, x0
	ldr	x0, [sp, #40]                   ; 8-byte Folded Reload
	.loc	1 283 34 is_stmt 0              ; main.c:283:34
	add	w9, w8, #1                      ; =1
	.loc	1 283 9                         ; main.c:283:9
	ldur	w8, [x29, #-8]
	add	w8, w8, w9
	stur	w8, [x29, #-8]
	.loc	1 284 7 is_stmt 1               ; main.c:284:7
	ldur	w8, [x29, #-44]
                                        ; implicit-def: $x10
	mov	x10, x8
	ldur	x8, [x29, #-32]
	ldr	w9, [x8, #1300]
                                        ; implicit-def: $x8
	mov	x8, x9
	.loc	1 0 0 is_stmt 0                 ; main.c:0:0
	adrp	x3, l_.str.50@PAGE
	add	x3, x3, l_.str.50@PAGEOFF
	.loc	1 284 7                         ; main.c:284:7
	mov	x9, sp
	str	x10, [x9]
	str	x8, [x9, #8]
	bl	___sprintf_chk
	ldr	x8, [sp, #32]                   ; 8-byte Folded Reload
	ldr	x2, [sp, #40]                   ; 8-byte Folded Reload
	ldr	w4, [sp, #48]                   ; 4-byte Folded Reload
	.loc	1 285 11 is_stmt 1              ; main.c:285:11
	ldr	x8, [x8, _left_margin@PAGEOFF]
                                        ; kill: def $w8 killed $w8 killed $x8
	.loc	1 285 9 is_stmt 0               ; main.c:285:9
	stur	w8, [x29, #-36]
	.loc	1 286 28 is_stmt 1              ; main.c:286:28
	ldur	w0, [x29, #-36]
	.loc	1 286 31 is_stmt 0              ; main.c:286:31
	ldur	w1, [x29, #-8]
	.loc	1 286 12                        ; main.c:286:12
	mov	x3, x4
	bl	_tga_draw_string
	.loc	1 286 9                         ; main.c:286:9
	ldur	w8, [x29, #-36]
	add	w8, w8, w0
	stur	w8, [x29, #-36]
	.loc	1 287 15 is_stmt 1              ; main.c:287:15
	bl	_tga_get_char_height
	.loc	1 287 36 is_stmt 0              ; main.c:287:36
	add	w8, w0, #1                      ; =1
	mov	w9, #3
	.loc	1 287 39                        ; main.c:287:39
	mul	w8, w8, w9
	.loc	1 287 7                         ; main.c:287:7
	stur	w8, [x29, #-4]
	b	LBB7_7
Ltmp86:
LBB7_5:
LBB7_6:
	.loc	1 290 3 is_stmt 1               ; main.c:290:3
	stur	wzr, [x29, #-4]
LBB7_7:
	.loc	1 291 1                         ; main.c:291:1
	ldur	w0, [x29, #-4]
	ldp	x29, x30, [sp, #96]             ; 16-byte Folded Reload
	add	sp, sp, #112                    ; =112
	ret
Ltmp87:
Lfunc_end7:
	.cfi_endproc
                                        ; -- End function
	.globl	_tga_draw_font                  ; -- Begin function tga_draw_font
	.p2align	2
_tga_draw_font:                         ; @tga_draw_font
Lfunc_begin8:
	.loc	1 295 0                         ; main.c:295:0
	.cfi_startproc
; %bb.0:
	sub	sp, sp, #96                     ; =96
	stp	x29, x30, [sp, #80]             ; 16-byte Folded Spill
	add	x29, sp, #80                    ; =80
	.cfi_def_cfa w29, 16
	.cfi_offset w30, -8
	.cfi_offset w29, -16
	stur	w0, [x29, #-4]
	stur	x1, [x29, #-16]
	stur	x2, [x29, #-24]
	stur	x3, [x29, #-32]
	str	x4, [sp, #40]
Ltmp88:
	.loc	1 298 8 prologue_end            ; main.c:298:8
	str	wzr, [sp, #24]
	.loc	1 300 10                        ; main.c:300:10
	ldur	x8, [x29, #-32]
	str	x8, [sp, #16]                   ; 8-byte Folded Spill
	.loc	1 300 62 is_stmt 0              ; main.c:300:62
	ldur	x0, [x29, #-24]
	.loc	1 300 76                        ; main.c:300:76
	ldur	x1, [x29, #-32]
	.loc	1 300 42                        ; main.c:300:42
	bl	_tga_get_line_height
	mov	x10, x0
	ldr	x0, [sp, #16]                   ; 8-byte Folded Reload
	.loc	1 0 0                           ; main.c:0:0
	adrp	x1, l_.str.51@PAGE
	add	x1, x1, l_.str.51@PAGEOFF
	.loc	1 300 3                         ; main.c:300:3
	mov	x9, sp
                                        ; implicit-def: $x8
	mov	x8, x10
	str	x8, [x9]
	bl	_bf_Log
	.loc	1 302 28 is_stmt 1              ; main.c:302:28
	ldur	w0, [x29, #-4]
	.loc	1 302 31 is_stmt 0              ; main.c:302:31
	ldur	x1, [x29, #-16]
	.loc	1 302 41                        ; main.c:302:41
	ldur	x2, [x29, #-24]
	.loc	1 302 55                        ; main.c:302:55
	ldur	x3, [x29, #-32]
	.loc	1 302 8                         ; main.c:302:8
	bl	_tga_draw_font_info
	.loc	1 302 5                         ; main.c:302:5
	ldur	w8, [x29, #-4]
	add	w8, w8, w0
	stur	w8, [x29, #-4]
	.loc	1 304 30 is_stmt 1              ; main.c:304:30
	ldur	x0, [x29, #-24]
	.loc	1 304 44 is_stmt 0              ; main.c:304:44
	ldur	x1, [x29, #-32]
	.loc	1 304 10                        ; main.c:304:10
	bl	_tga_get_line_height
	.loc	1 304 47                        ; main.c:304:47
	add	w9, w0, #1                      ; =1
	.loc	1 304 5                         ; main.c:304:5
	ldur	w8, [x29, #-4]
	add	w8, w8, w9
	stur	w8, [x29, #-4]
Ltmp89:
	.loc	1 308 10 is_stmt 1              ; main.c:308:10
	str	xzr, [sp, #32]
LBB8_1:                                 ; =>This Inner Loop Header: Depth=1
Ltmp90:
	.loc	1 308 15 is_stmt 0              ; main.c:308:15
	ldr	x8, [sp, #32]
Ltmp91:
	.loc	1 308 3                         ; main.c:308:3
	subs	x8, x8, #16, lsl #12            ; =65536
	b.ge	LBB8_8
; %bb.2:                                ;   in Loop: Header=BB8_1 Depth=1
Ltmp92:
	.loc	1 310 28 is_stmt 1              ; main.c:310:28
	ldur	w0, [x29, #-4]
	.loc	1 310 31 is_stmt 0              ; main.c:310:31
	ldr	x1, [sp, #32]
	.loc	1 310 34                        ; main.c:310:34
	ldur	x2, [x29, #-24]
	.loc	1 310 48                        ; main.c:310:48
	ldur	x3, [x29, #-32]
	.loc	1 310 52                        ; main.c:310:52
	ldr	x4, [sp, #40]
	.loc	1 310 9                         ; main.c:310:9
	bl	_tga_draw_font_line
	.loc	1 310 7                         ; main.c:310:7
	str	w0, [sp, #28]
Ltmp93:
	.loc	1 311 10 is_stmt 1              ; main.c:311:10
	ldr	w8, [sp, #28]
Ltmp94:
	.loc	1 311 10 is_stmt 0              ; main.c:311:10
	subs	w8, w8, #0                      ; =0
	b.ls	LBB8_6
; %bb.3:                                ;   in Loop: Header=BB8_1 Depth=1
Ltmp95:
	.loc	1 313 12 is_stmt 1              ; main.c:313:12
	ldr	w8, [sp, #24]
	.loc	1 313 19 is_stmt 0              ; main.c:313:19
	ldr	w9, [sp, #28]
Ltmp96:
	.loc	1 313 12                        ; main.c:313:12
	subs	w8, w8, w9
	b.hs	LBB8_5
; %bb.4:                                ;   in Loop: Header=BB8_1 Depth=1
Ltmp97:
	.loc	1 314 9 is_stmt 1               ; main.c:314:9
	ldr	w8, [sp, #28]
	.loc	1 314 7 is_stmt 0               ; main.c:314:7
	str	w8, [sp, #24]
Ltmp98:
LBB8_5:                                 ;   in Loop: Header=BB8_1 Depth=1
	.loc	1 315 33 is_stmt 1              ; main.c:315:33
	ldur	x0, [x29, #-24]
	.loc	1 315 47 is_stmt 0              ; main.c:315:47
	ldur	x1, [x29, #-32]
	.loc	1 315 13                        ; main.c:315:13
	bl	_tga_get_line_height
	.loc	1 315 50                        ; main.c:315:50
	add	w9, w0, #1                      ; =1
	.loc	1 315 9                         ; main.c:315:9
	ldur	w8, [x29, #-4]
	add	w8, w8, w9
	stur	w8, [x29, #-4]
Ltmp99:
LBB8_6:                                 ;   in Loop: Header=BB8_1 Depth=1
; %bb.7:                                ;   in Loop: Header=BB8_1 Depth=1
	.loc	1 308 32 is_stmt 1              ; main.c:308:32
	ldr	x9, [sp, #40]
	.loc	1 308 30 is_stmt 0              ; main.c:308:30
	ldr	x8, [sp, #32]
	add	x8, x8, x9
	str	x8, [sp, #32]
	.loc	1 308 3                         ; main.c:308:3
	b	LBB8_1
Ltmp100:
LBB8_8:
	.loc	1 320 10 is_stmt 1              ; main.c:320:10
	ldur	x0, [x29, #-32]
	.loc	1 320 35 is_stmt 0              ; main.c:320:35
	ldr	w9, [sp, #24]
                                        ; implicit-def: $x8
	mov	x8, x9
	.loc	1 0 0                           ; main.c:0:0
	adrp	x1, l_.str.52@PAGE
	add	x1, x1, l_.str.52@PAGEOFF
	.loc	1 320 3                         ; main.c:320:3
	mov	x9, sp
	str	x8, [x9]
	bl	_bf_Log
	.loc	1 322 16 is_stmt 1              ; main.c:322:16
	ldur	x8, [x29, #-32]
	.loc	1 322 20 is_stmt 0              ; main.c:322:20
	ldr	x0, [x8, #1288]
	.loc	1 322 3                         ; main.c:322:3
	bl	_tga_set_font
Ltmp101:
	.loc	1 0 0                           ; main.c:0:0
	adrp	x8, _font_picture_test_string@PAGE
	.loc	1 326 8 is_stmt 1               ; main.c:326:8
	ldr	w8, [x8, _font_picture_test_string@PAGEOFF]
Ltmp102:
	.loc	1 326 8 is_stmt 0               ; main.c:326:8
	cbz	w8, LBB8_10
; %bb.9:
Ltmp103:
	.loc	1 0 0                           ; main.c:0:0
	adrp	x8, _left_margin@PAGE
	.loc	1 328 21 is_stmt 1              ; main.c:328:21
	ldr	x8, [x8, _left_margin@PAGEOFF]
	mov	x0, x8
	.loc	1 328 34 is_stmt 0              ; main.c:328:34
	ldur	w1, [x29, #-4]
	.loc	1 328 89                        ; main.c:328:89
	ldr	w4, [sp, #24]
	.loc	1 0 0                           ; main.c:0:0
	adrp	x2, l_.str.53@PAGE
	add	x2, x2, l_.str.53@PAGEOFF
	mov	w3, #0
	.loc	1 328 5                         ; main.c:328:5
	bl	_tga_draw_string
	.loc	1 329 31 is_stmt 1              ; main.c:329:31
	ldur	x0, [x29, #-24]
	.loc	1 329 45 is_stmt 0              ; main.c:329:45
	ldur	x1, [x29, #-32]
	.loc	1 329 11                        ; main.c:329:11
	bl	_tga_get_line_height
	.loc	1 329 48                        ; main.c:329:48
	add	w9, w0, #1                      ; =1
	.loc	1 329 7                         ; main.c:329:7
	ldur	w8, [x29, #-4]
	add	w8, w8, w9
	stur	w8, [x29, #-4]
Ltmp104:
LBB8_10:
	.loc	1 331 10 is_stmt 1              ; main.c:331:10
	ldur	w0, [x29, #-4]
	.loc	1 331 3 is_stmt 0               ; main.c:331:3
	ldp	x29, x30, [sp, #80]             ; 16-byte Folded Reload
	add	sp, sp, #96                     ; =96
	ret
Ltmp105:
Lfunc_end8:
	.cfi_endproc
                                        ; -- End function
	.section	__TEXT,__literal8,8byte_literals
	.p2align	3                               ; -- Begin function main
lCPI9_0:
	.quad	0x412e848000000000              ; double 1.0E+6
	.section	__TEXT,__text,regular,pure_instructions
	.globl	_main
	.p2align	2
_main:                                  ; @main
Lfunc_begin9:
	.loc	1 339 0 is_stmt 1               ; main.c:339:0
	.cfi_startproc
; %bb.0:
	sub	sp, sp, #224                    ; =224
	stp	x29, x30, [sp, #208]            ; 16-byte Folded Spill
	add	x29, sp, #208                   ; =208
	.cfi_def_cfa w29, 16
	.cfi_offset w30, -8
	.cfi_offset w29, -16
	stur	wzr, [x29, #-4]
	stur	w0, [x29, #-8]
	stur	x1, [x29, #-16]
Ltmp106:
	.loc	1 342 9 prologue_end            ; main.c:342:9
	stur	xzr, [x29, #-40]
	.loc	1 343 7                         ; main.c:343:7
	stur	wzr, [x29, #-44]
	.loc	1 0 0 is_stmt 0                 ; main.c:0:0
	adrp	x8, l_.str.54@PAGE
	add	x8, x8, l_.str.54@PAGEOFF
	.loc	1 344 9 is_stmt 1               ; main.c:344:9
	stur	x8, [x29, #-56]
	.loc	1 0 0 is_stmt 0                 ; main.c:0:0
	adrp	x8, l_.str.55@PAGE
	add	x8, x8, l_.str.55@PAGEOFF
	.loc	1 345 9 is_stmt 1               ; main.c:345:9
	stur	x8, [x29, #-64]
	.loc	1 346 9                         ; main.c:346:9
	stur	x8, [x29, #-72]
	.loc	1 349 7                         ; main.c:349:7
	ldur	x8, [x29, #-16]
	add	x8, x8, #8                      ; =8
	stur	x8, [x29, #-16]
LBB9_1:                                 ; =>This Inner Loop Header: Depth=1
Ltmp107:
	.loc	1 359 11                        ; main.c:359:11
	ldur	x8, [x29, #-16]
	.loc	1 359 10 is_stmt 0              ; main.c:359:10
	ldr	x8, [x8]
Ltmp108:
	.loc	1 359 10                        ; main.c:359:10
	cbnz	x8, LBB9_3
; %bb.2:
Ltmp109:
	.loc	1 360 7 is_stmt 1               ; main.c:360:7
	b	LBB9_64
Ltmp110:
LBB9_3:                                 ;   in Loop: Header=BB9_1 Depth=1
	.loc	1 0 7 is_stmt 0                 ; main.c:0:7
	sub	x0, x29, #16                    ; =16
	mov	w1, #104
Ltmp111:
	.loc	1 361 10 is_stmt 1              ; main.c:361:10
	bl	_is_arg
Ltmp112:
	.loc	1 361 10 is_stmt 0              ; main.c:361:10
	cbz	w0, LBB9_5
; %bb.4:
Ltmp113:
	.loc	1 363 7 is_stmt 1               ; main.c:363:7
	bl	_help
	mov	w0, #1
	.loc	1 364 7                         ; main.c:364:7
	bl	_exit
Ltmp114:
LBB9_5:                                 ;   in Loop: Header=BB9_1 Depth=1
	.loc	1 0 7 is_stmt 0                 ; main.c:0:7
	sub	x0, x29, #16                    ; =16
	mov	w1, #118
Ltmp115:
	.loc	1 366 15 is_stmt 1              ; main.c:366:15
	bl	_is_arg
Ltmp116:
	.loc	1 366 15 is_stmt 0              ; main.c:366:15
	cbz	w0, LBB9_7
; %bb.6:                                ;   in Loop: Header=BB9_1 Depth=1
	.loc	1 0 15                          ; main.c:0:15
	mov	w8, #1
Ltmp117:
	.loc	1 368 18 is_stmt 1              ; main.c:368:18
	stur	w8, [x29, #-44]
	.loc	1 369 5                         ; main.c:369:5
	b	LBB9_62
Ltmp118:
LBB9_7:                                 ;   in Loop: Header=BB9_1 Depth=1
	.loc	1 0 5 is_stmt 0                 ; main.c:0:5
	sub	x0, x29, #16                    ; =16
	mov	w1, #97
Ltmp119:
	.loc	1 370 15 is_stmt 1              ; main.c:370:15
	bl	_is_arg
Ltmp120:
	.loc	1 370 15 is_stmt 0              ; main.c:370:15
	cbz	w0, LBB9_9
; %bb.8:                                ;   in Loop: Header=BB9_1 Depth=1
Ltmp121:
	.loc	1 0 0                           ; main.c:0:0
	adrp	x9, _font_picture_extra_info@PAGE
	mov	w8, #1
	.loc	1 372 31 is_stmt 1              ; main.c:372:31
	str	w8, [x9, _font_picture_extra_info@PAGEOFF]
	.loc	1 373 5                         ; main.c:373:5
	b	LBB9_61
Ltmp122:
LBB9_9:                                 ;   in Loop: Header=BB9_1 Depth=1
	.loc	1 0 5 is_stmt 0                 ; main.c:0:5
	sub	x0, x29, #16                    ; =16
Ltmp123:
	adrp	x1, l_.str.56@PAGE
	add	x1, x1, l_.str.56@PAGEOFF
	adrp	x2, _tile_h_size@PAGE
	add	x2, x2, _tile_h_size@PAGEOFF
	.loc	1 374 15 is_stmt 1              ; main.c:374:15
	bl	_get_num_strarg
Ltmp124:
	.loc	1 374 15 is_stmt 0              ; main.c:374:15
	cbz	w0, LBB9_11
; %bb.10:                               ;   in Loop: Header=BB9_1 Depth=1
Ltmp125:
	.loc	1 376 5 is_stmt 1               ; main.c:376:5
	b	LBB9_60
Ltmp126:
LBB9_11:                                ;   in Loop: Header=BB9_1 Depth=1
	.loc	1 0 5 is_stmt 0                 ; main.c:0:5
	sub	x0, x29, #16                    ; =16
Ltmp127:
	adrp	x1, l_.str.57@PAGE
	add	x1, x1, l_.str.57@PAGEOFF
	adrp	x2, _tile_v_size@PAGE
	add	x2, x2, _tile_v_size@PAGEOFF
	.loc	1 377 15 is_stmt 1              ; main.c:377:15
	bl	_get_num_strarg
Ltmp128:
	.loc	1 377 15 is_stmt 0              ; main.c:377:15
	cbz	w0, LBB9_13
; %bb.12:                               ;   in Loop: Header=BB9_1 Depth=1
Ltmp129:
	.loc	1 379 5 is_stmt 1               ; main.c:379:5
	b	LBB9_59
Ltmp130:
LBB9_13:                                ;   in Loop: Header=BB9_1 Depth=1
	.loc	1 0 5 is_stmt 0                 ; main.c:0:5
	sub	x0, x29, #16                    ; =16
	mov	w1, #116
Ltmp131:
	.loc	1 380 15 is_stmt 1              ; main.c:380:15
	bl	_is_arg
Ltmp132:
	.loc	1 380 15 is_stmt 0              ; main.c:380:15
	cbz	w0, LBB9_15
; %bb.14:                               ;   in Loop: Header=BB9_1 Depth=1
Ltmp133:
	.loc	1 0 0                           ; main.c:0:0
	adrp	x9, _font_picture_test_string@PAGE
	mov	w8, #1
	.loc	1 382 32 is_stmt 1              ; main.c:382:32
	str	w8, [x9, _font_picture_test_string@PAGEOFF]
	.loc	1 383 5                         ; main.c:383:5
	b	LBB9_58
Ltmp134:
LBB9_15:                                ;   in Loop: Header=BB9_1 Depth=1
	.loc	1 0 5 is_stmt 0                 ; main.c:0:5
	sub	x0, x29, #16                    ; =16
	mov	w1, #114
Ltmp135:
	.loc	1 384 15 is_stmt 1              ; main.c:384:15
	bl	_is_arg
Ltmp136:
	.loc	1 384 15 is_stmt 0              ; main.c:384:15
	cbz	w0, LBB9_17
; %bb.16:                               ;   in Loop: Header=BB9_1 Depth=1
Ltmp137:
	.loc	1 0 0                           ; main.c:0:0
	adrp	x9, _runtime_test@PAGE
	mov	w8, #1
	.loc	1 386 20 is_stmt 1              ; main.c:386:20
	str	w8, [x9, _runtime_test@PAGEOFF]
	.loc	1 387 5                         ; main.c:387:5
	b	LBB9_57
Ltmp138:
LBB9_17:                                ;   in Loop: Header=BB9_1 Depth=1
	.loc	1 0 5 is_stmt 0                 ; main.c:0:5
	sub	x0, x29, #16                    ; =16
	mov	w1, #103
Ltmp139:
	adrp	x2, _cmdline_glyphs_per_line@PAGE
	add	x2, x2, _cmdline_glyphs_per_line@PAGEOFF
	.loc	1 388 15 is_stmt 1              ; main.c:388:15
	bl	_get_num_arg
Ltmp140:
	.loc	1 388 15 is_stmt 0              ; main.c:388:15
	cbz	w0, LBB9_19
; %bb.18:                               ;   in Loop: Header=BB9_1 Depth=1
Ltmp141:
	.loc	1 390 5 is_stmt 1               ; main.c:390:5
	b	LBB9_56
Ltmp142:
LBB9_19:                                ;   in Loop: Header=BB9_1 Depth=1
	.loc	1 0 5 is_stmt 0                 ; main.c:0:5
	sub	x0, x29, #16                    ; =16
	mov	w1, #98
Ltmp143:
	adrp	x2, _build_bbx_mode@PAGE
	add	x2, x2, _build_bbx_mode@PAGEOFF
	.loc	1 391 15 is_stmt 1              ; main.c:391:15
	bl	_get_num_arg
Ltmp144:
	.loc	1 391 15 is_stmt 0              ; main.c:391:15
	cbz	w0, LBB9_21
; %bb.20:                               ;   in Loop: Header=BB9_1 Depth=1
Ltmp145:
	.loc	1 393 5 is_stmt 1               ; main.c:393:5
	b	LBB9_55
Ltmp146:
LBB9_21:                                ;   in Loop: Header=BB9_1 Depth=1
	.loc	1 0 5 is_stmt 0                 ; main.c:0:5
	sub	x0, x29, #16                    ; =16
	mov	w1, #102
Ltmp147:
	adrp	x2, _font_format@PAGE
	add	x2, x2, _font_format@PAGEOFF
	.loc	1 394 15 is_stmt 1              ; main.c:394:15
	bl	_get_num_arg
Ltmp148:
	.loc	1 394 15 is_stmt 0              ; main.c:394:15
	cbz	w0, LBB9_23
; %bb.22:                               ;   in Loop: Header=BB9_1 Depth=1
Ltmp149:
	.loc	1 396 5 is_stmt 1               ; main.c:396:5
	b	LBB9_54
Ltmp150:
LBB9_23:                                ;   in Loop: Header=BB9_1 Depth=1
	.loc	1 0 5 is_stmt 0                 ; main.c:0:5
	sub	x0, x29, #16                    ; =16
	mov	w1, #120
Ltmp151:
	adrp	x2, _xoffset@PAGE
	add	x2, x2, _xoffset@PAGEOFF
	.loc	1 397 15 is_stmt 1              ; main.c:397:15
	bl	_get_num_arg
Ltmp152:
	.loc	1 397 15 is_stmt 0              ; main.c:397:15
	cbz	w0, LBB9_25
; %bb.24:                               ;   in Loop: Header=BB9_1 Depth=1
Ltmp153:
	.loc	1 399 5 is_stmt 1               ; main.c:399:5
	b	LBB9_53
Ltmp154:
LBB9_25:                                ;   in Loop: Header=BB9_1 Depth=1
	.loc	1 0 5 is_stmt 0                 ; main.c:0:5
	sub	x0, x29, #16                    ; =16
	mov	w1, #121
Ltmp155:
	adrp	x2, _yoffset@PAGE
	add	x2, x2, _yoffset@PAGEOFF
	.loc	1 400 15 is_stmt 1              ; main.c:400:15
	bl	_get_num_arg
Ltmp156:
	.loc	1 400 15 is_stmt 0              ; main.c:400:15
	cbz	w0, LBB9_27
; %bb.26:                               ;   in Loop: Header=BB9_1 Depth=1
Ltmp157:
	.loc	1 402 5 is_stmt 1               ; main.c:402:5
	b	LBB9_52
Ltmp158:
LBB9_27:                                ;   in Loop: Header=BB9_1 Depth=1
	.loc	1 0 5 is_stmt 0                 ; main.c:0:5
	sub	x0, x29, #16                    ; =16
	mov	w1, #108
Ltmp159:
	adrp	x2, _left_margin@PAGE
	add	x2, x2, _left_margin@PAGEOFF
	.loc	1 403 15 is_stmt 1              ; main.c:403:15
	bl	_get_num_arg
Ltmp160:
	.loc	1 403 15 is_stmt 0              ; main.c:403:15
	cbz	w0, LBB9_29
; %bb.28:                               ;   in Loop: Header=BB9_1 Depth=1
Ltmp161:
	.loc	1 405 5 is_stmt 1               ; main.c:405:5
	b	LBB9_51
Ltmp162:
LBB9_29:                                ;   in Loop: Header=BB9_1 Depth=1
	.loc	1 0 5 is_stmt 0                 ; main.c:0:5
	sub	x0, x29, #16                    ; =16
	mov	w1, #112
Ltmp163:
	adrp	x2, _min_distance_in_per_cent_of_char_width@PAGE
	add	x2, x2, _min_distance_in_per_cent_of_char_width@PAGEOFF
	.loc	1 406 15 is_stmt 1              ; main.c:406:15
	bl	_get_num_arg
Ltmp164:
	.loc	1 406 15 is_stmt 0              ; main.c:406:15
	cbz	w0, LBB9_31
; %bb.30:                               ;   in Loop: Header=BB9_1 Depth=1
Ltmp165:
	.loc	1 408 5 is_stmt 1               ; main.c:408:5
	b	LBB9_50
Ltmp166:
LBB9_31:                                ;   in Loop: Header=BB9_1 Depth=1
	.loc	1 0 5 is_stmt 0                 ; main.c:0:5
	sub	x0, x29, #16                    ; =16
	mov	w1, #100
	sub	x2, x29, #72                    ; =72
Ltmp167:
	.loc	1 409 15 is_stmt 1              ; main.c:409:15
	bl	_get_str_arg
Ltmp168:
	.loc	1 409 15 is_stmt 0              ; main.c:409:15
	cbz	w0, LBB9_33
; %bb.32:                               ;   in Loop: Header=BB9_1 Depth=1
Ltmp169:
	.loc	1 411 5 is_stmt 1               ; main.c:411:5
	b	LBB9_49
Ltmp170:
LBB9_33:                                ;   in Loop: Header=BB9_1 Depth=1
	.loc	1 0 5 is_stmt 0                 ; main.c:0:5
	sub	x0, x29, #16                    ; =16
	mov	w1, #111
Ltmp171:
	adrp	x2, _c_filename@PAGE
	add	x2, x2, _c_filename@PAGEOFF
	.loc	1 412 15 is_stmt 1              ; main.c:412:15
	bl	_get_str_arg
Ltmp172:
	.loc	1 412 15 is_stmt 0              ; main.c:412:15
	cbz	w0, LBB9_35
; %bb.34:                               ;   in Loop: Header=BB9_1 Depth=1
Ltmp173:
	.loc	1 414 5 is_stmt 1               ; main.c:414:5
	b	LBB9_48
Ltmp174:
LBB9_35:                                ;   in Loop: Header=BB9_1 Depth=1
	.loc	1 0 5 is_stmt 0                 ; main.c:0:5
	sub	x0, x29, #16                    ; =16
	mov	w1, #110
Ltmp175:
	adrp	x2, _target_fontname@PAGE
	add	x2, x2, _target_fontname@PAGEOFF
	.loc	1 415 15 is_stmt 1              ; main.c:415:15
	bl	_get_str_arg
Ltmp176:
	.loc	1 415 15 is_stmt 0              ; main.c:415:15
	cbz	w0, LBB9_37
; %bb.36:                               ;   in Loop: Header=BB9_1 Depth=1
Ltmp177:
	.loc	1 417 5 is_stmt 1               ; main.c:417:5
	b	LBB9_47
Ltmp178:
LBB9_37:                                ;   in Loop: Header=BB9_1 Depth=1
	.loc	1 0 5 is_stmt 0                 ; main.c:0:5
	sub	x0, x29, #16                    ; =16
	mov	w1, #109
	sub	x2, x29, #56                    ; =56
Ltmp179:
	.loc	1 418 15 is_stmt 1              ; main.c:418:15
	bl	_get_str_arg
Ltmp180:
	.loc	1 418 15 is_stmt 0              ; main.c:418:15
	cbz	w0, LBB9_39
; %bb.38:                               ;   in Loop: Header=BB9_1 Depth=1
Ltmp181:
	.loc	1 420 5 is_stmt 1               ; main.c:420:5
	b	LBB9_46
Ltmp182:
LBB9_39:                                ;   in Loop: Header=BB9_1 Depth=1
	.loc	1 0 5 is_stmt 0                 ; main.c:0:5
	sub	x0, x29, #16                    ; =16
	mov	w1, #107
Ltmp183:
	adrp	x2, _k_filename@PAGE
	add	x2, x2, _k_filename@PAGEOFF
	.loc	1 421 15 is_stmt 1              ; main.c:421:15
	bl	_get_str_arg
Ltmp184:
	.loc	1 421 15 is_stmt 0              ; main.c:421:15
	cbz	w0, LBB9_41
; %bb.40:                               ;   in Loop: Header=BB9_1 Depth=1
Ltmp185:
	.loc	1 423 5 is_stmt 1               ; main.c:423:5
	b	LBB9_45
Ltmp186:
LBB9_41:                                ;   in Loop: Header=BB9_1 Depth=1
	.loc	1 0 5 is_stmt 0                 ; main.c:0:5
	sub	x0, x29, #16                    ; =16
	mov	w1, #77
	sub	x2, x29, #64                    ; =64
Ltmp187:
	.loc	1 424 15 is_stmt 1              ; main.c:424:15
	bl	_get_str_arg
Ltmp188:
	.loc	1 424 15 is_stmt 0              ; main.c:424:15
	cbz	w0, LBB9_43
; %bb.42:                               ;   in Loop: Header=BB9_1 Depth=1
Ltmp189:
	.loc	1 426 5 is_stmt 1               ; main.c:426:5
	b	LBB9_44
Ltmp190:
LBB9_43:                                ;   in Loop: Header=BB9_1 Depth=1
	.loc	1 429 23                        ; main.c:429:23
	ldur	x8, [x29, #-16]
	.loc	1 429 22 is_stmt 0              ; main.c:429:22
	ldr	x8, [x8]
	.loc	1 429 20                        ; main.c:429:20
	stur	x8, [x29, #-40]
	.loc	1 430 11 is_stmt 1              ; main.c:430:11
	ldur	x8, [x29, #-16]
	add	x8, x8, #8                      ; =8
	stur	x8, [x29, #-16]
Ltmp191:
LBB9_44:                                ;   in Loop: Header=BB9_1 Depth=1
LBB9_45:                                ;   in Loop: Header=BB9_1 Depth=1
LBB9_46:                                ;   in Loop: Header=BB9_1 Depth=1
LBB9_47:                                ;   in Loop: Header=BB9_1 Depth=1
LBB9_48:                                ;   in Loop: Header=BB9_1 Depth=1
LBB9_49:                                ;   in Loop: Header=BB9_1 Depth=1
LBB9_50:                                ;   in Loop: Header=BB9_1 Depth=1
LBB9_51:                                ;   in Loop: Header=BB9_1 Depth=1
LBB9_52:                                ;   in Loop: Header=BB9_1 Depth=1
LBB9_53:                                ;   in Loop: Header=BB9_1 Depth=1
LBB9_54:                                ;   in Loop: Header=BB9_1 Depth=1
LBB9_55:                                ;   in Loop: Header=BB9_1 Depth=1
LBB9_56:                                ;   in Loop: Header=BB9_1 Depth=1
LBB9_57:                                ;   in Loop: Header=BB9_1 Depth=1
LBB9_58:                                ;   in Loop: Header=BB9_1 Depth=1
LBB9_59:                                ;   in Loop: Header=BB9_1 Depth=1
LBB9_60:                                ;   in Loop: Header=BB9_1 Depth=1
LBB9_61:                                ;   in Loop: Header=BB9_1 Depth=1
LBB9_62:                                ;   in Loop: Header=BB9_1 Depth=1
; %bb.63:                               ;   in Loop: Header=BB9_1 Depth=1
	.loc	1 357 3                         ; main.c:357:3
	b	LBB9_1
Ltmp192:
LBB9_64:
	.loc	1 434 8                         ; main.c:434:8
	ldur	x8, [x29, #-40]
Ltmp193:
	.loc	1 434 8 is_stmt 0               ; main.c:434:8
	cbnz	x8, LBB9_66
; %bb.65:
Ltmp194:
	.loc	1 436 5 is_stmt 1               ; main.c:436:5
	bl	_help
	mov	w0, #1
	.loc	1 437 5                         ; main.c:437:5
	bl	_exit
Ltmp195:
LBB9_66:
	.loc	1 440 16                        ; main.c:440:16
	stur	xzr, [x29, #-24]
Ltmp196:
	.loc	1 441 8                         ; main.c:441:8
	ldur	x8, [x29, #-72]
	ldrsb	w8, [x8]
Ltmp197:
	.loc	1 441 8 is_stmt 0               ; main.c:441:8
	cbz	w8, LBB9_70
; %bb.67:
Ltmp198:
	.loc	1 443 36 is_stmt 1              ; main.c:443:36
	ldur	x0, [x29, #-72]
	mov	w7, #0
	.loc	1 443 20 is_stmt 0              ; main.c:443:20
	mov	x1, x7
	mov	x2, x7
Ltmp199:
	.loc	1 0 0                           ; main.c:0:0
	adrp	x3, l_.str.54@PAGE
	add	x3, x3, l_.str.54@PAGEOFF
	adrp	x4, l_.str.55@PAGE
	add	x4, x4, l_.str.55@PAGEOFF
Ltmp200:
	.loc	1 443 20                        ; main.c:443:20
	mov	x5, x7
	mov	x6, x7
	mov	x9, sp
	mov	w8, #1
	str	w8, [x9]
	str	w8, [x9, #4]
	bl	_bf_OpenFromFile
	.loc	1 443 18                        ; main.c:443:18
	stur	x0, [x29, #-24]
Ltmp201:
	.loc	1 444 10 is_stmt 1              ; main.c:444:10
	ldur	x8, [x29, #-24]
Ltmp202:
	.loc	1 444 10 is_stmt 0              ; main.c:444:10
	cbnz	x8, LBB9_69
; %bb.68:
	.loc	1 0 10                          ; main.c:0:10
	mov	w0, #1
Ltmp203:
	.loc	1 446 7 is_stmt 1               ; main.c:446:7
	bl	_exit
Ltmp204:
LBB9_69:
LBB9_70:
	.loc	1 0 0 is_stmt 0                 ; main.c:0:0
	adrp	x8, _font_format@PAGE
Ltmp205:
	.loc	1 450 8 is_stmt 1               ; main.c:450:8
	ldr	x8, [x8, _font_format@PAGEOFF]
Ltmp206:
	.loc	1 450 8 is_stmt 0               ; main.c:450:8
	subs	x8, x8, #2                      ; =2
	b.ne	LBB9_72
; %bb.71:
	.loc	1 0 8                           ; main.c:0:8
	mov	x8, #3
Ltmp207:
	adrp	x9, _build_bbx_mode@PAGE
Ltmp208:
	.loc	1 452 20 is_stmt 1              ; main.c:452:20
	str	x8, [x9, _build_bbx_mode@PAGEOFF]
Ltmp209:
LBB9_72:
	.loc	1 458 24                        ; main.c:458:24
	ldur	x0, [x29, #-40]
	.loc	1 458 38 is_stmt 0              ; main.c:458:38
	ldur	w1, [x29, #-44]
Ltmp210:
	.loc	1 0 0                           ; main.c:0:0
	adrp	x8, _build_bbx_mode@PAGE
Ltmp211:
	.loc	1 458 50                        ; main.c:458:50
	ldr	x8, [x8, _build_bbx_mode@PAGEOFF]
	mov	x2, x8
	.loc	1 458 66                        ; main.c:458:66
	ldur	x3, [x29, #-56]
	.loc	1 458 75                        ; main.c:458:75
	ldur	x4, [x29, #-64]
Ltmp212:
	.loc	1 0 0                           ; main.c:0:0
	adrp	x8, _font_format@PAGE
Ltmp213:
	.loc	1 458 89                        ; main.c:458:89
	ldr	x8, [x8, _font_format@PAGEOFF]
	mov	x5, x8
Ltmp214:
	.loc	1 0 0                           ; main.c:0:0
	adrp	x8, _xoffset@PAGE
Ltmp215:
	.loc	1 458 102                       ; main.c:458:102
	ldr	x8, [x8, _xoffset@PAGEOFF]
	mov	x6, x8
Ltmp216:
	.loc	1 0 0                           ; main.c:0:0
	adrp	x8, _yoffset@PAGE
Ltmp217:
	.loc	1 458 111                       ; main.c:458:111
	ldr	x8, [x8, _yoffset@PAGEOFF]
	mov	x7, x8
Ltmp218:
	.loc	1 0 0                           ; main.c:0:0
	adrp	x8, _tile_h_size@PAGE
Ltmp219:
	.loc	1 458 120                       ; main.c:458:120
	ldr	x8, [x8, _tile_h_size@PAGEOFF]
	mov	x10, x8
Ltmp220:
	.loc	1 0 0                           ; main.c:0:0
	adrp	x8, _tile_v_size@PAGE
Ltmp221:
	.loc	1 458 133                       ; main.c:458:133
	ldr	x8, [x8, _tile_v_size@PAGEOFF]
                                        ; kill: def $w8 killed $w8 killed $x8
	.loc	1 458 8                         ; main.c:458:8
	mov	x9, sp
	str	w10, [x9]
	str	w8, [x9, #4]
	bl	_bf_OpenFromFile
	.loc	1 458 6                         ; main.c:458:6
	stur	x0, [x29, #-32]
Ltmp222:
	.loc	1 460 8 is_stmt 1               ; main.c:460:8
	ldur	x8, [x29, #-32]
Ltmp223:
	.loc	1 460 8 is_stmt 0               ; main.c:460:8
	cbnz	x8, LBB9_74
; %bb.73:
	.loc	1 0 8                           ; main.c:0:8
	mov	w0, #1
Ltmp224:
	.loc	1 462 5 is_stmt 1               ; main.c:462:5
	bl	_exit
Ltmp225:
LBB9_74:
	.loc	1 0 0 is_stmt 0                 ; main.c:0:0
	adrp	x8, _font_format@PAGE
Ltmp226:
	.loc	1 465 8 is_stmt 1               ; main.c:465:8
	ldr	x8, [x8, _font_format@PAGEOFF]
Ltmp227:
	.loc	1 465 8 is_stmt 0               ; main.c:465:8
	subs	x8, x8, #2                      ; =2
	b.ne	LBB9_76
; %bb.75:
Ltmp228:
	.loc	1 468 12 is_stmt 1              ; main.c:468:12
	ldur	x0, [x29, #-32]
	.loc	1 0 0 is_stmt 0                 ; main.c:0:0
	adrp	x1, l_.str.58@PAGE
	add	x1, x1, l_.str.58@PAGEOFF
	.loc	1 468 5                         ; main.c:468:5
	bl	_bf_Log
Ltmp229:
LBB9_76:
	.loc	1 471 8 is_stmt 1               ; main.c:471:8
	ldur	x8, [x29, #-24]
Ltmp230:
	.loc	1 471 8 is_stmt 0               ; main.c:471:8
	cbz	x8, LBB9_90
; %bb.77:
Ltmp231:
	.loc	1 0 0                           ; main.c:0:0
	adrp	x8, _font_format@PAGE
Ltmp232:
	.loc	1 473 10 is_stmt 1              ; main.c:473:10
	ldr	x8, [x8, _font_format@PAGEOFF]
Ltmp233:
	.loc	1 473 10 is_stmt 0              ; main.c:473:10
	subs	x8, x8, #2                      ; =2
	b.ne	LBB9_79
; %bb.78:
Ltmp234:
	.loc	1 475 14 is_stmt 1              ; main.c:475:14
	ldur	x0, [x29, #-32]
	.loc	1 0 0 is_stmt 0                 ; main.c:0:0
	adrp	x1, l_.str.59@PAGE
	add	x1, x1, l_.str.59@PAGEOFF
	.loc	1 475 7                         ; main.c:475:7
	bl	_bf_Log
	.loc	1 476 5 is_stmt 1               ; main.c:476:5
	b	LBB9_89
Ltmp235:
LBB9_79:
	.loc	1 0 5 is_stmt 0                 ; main.c:0:5
	mov	w0, #1024
	mov	w1, #12288
Ltmp236:
	.loc	1 480 7 is_stmt 1               ; main.c:480:7
	bl	_tga_init
Ltmp237:
	.loc	1 0 0 is_stmt 0                 ; main.c:0:0
	adrp	x8, _target_fontname@PAGE
Ltmp238:
	.loc	1 481 12 is_stmt 1              ; main.c:481:12
	ldr	x8, [x8, _target_fontname@PAGEOFF]
	ldrsb	w8, [x8]
Ltmp239:
	.loc	1 481 12 is_stmt 0              ; main.c:481:12
	cbz	w8, LBB9_81
Ltmp240:
; %bb.80:
	.loc	1 0 0                           ; main.c:0:0
	adrp	x8, _target_fontname@PAGE
Ltmp241:
	.loc	1 482 23 is_stmt 1              ; main.c:482:23
	ldr	x1, [x8, _target_fontname@PAGEOFF]
	.loc	1 482 40 is_stmt 0              ; main.c:482:40
	ldur	x2, [x29, #-24]
	.loc	1 482 54                        ; main.c:482:54
	ldur	x3, [x29, #-32]
Ltmp242:
	.loc	1 0 0                           ; main.c:0:0
	adrp	x8, _cmdline_glyphs_per_line@PAGE
Ltmp243:
	.loc	1 482 58                        ; main.c:482:58
	ldr	x4, [x8, _cmdline_glyphs_per_line@PAGEOFF]
	mov	w0, #0
	.loc	1 482 6                         ; main.c:482:6
	bl	_tga_draw_font
	.loc	1 482 4                         ; main.c:482:4
	stur	w0, [x29, #-76]
	.loc	1 482 2                         ; main.c:482:2
	b	LBB9_82
LBB9_81:
	.loc	1 484 23 is_stmt 1              ; main.c:484:23
	ldur	x1, [x29, #-40]
	.loc	1 484 37 is_stmt 0              ; main.c:484:37
	ldur	x2, [x29, #-24]
	.loc	1 484 51                        ; main.c:484:51
	ldur	x3, [x29, #-32]
Ltmp244:
	.loc	1 0 0                           ; main.c:0:0
	adrp	x8, _cmdline_glyphs_per_line@PAGE
Ltmp245:
	.loc	1 484 55                        ; main.c:484:55
	ldr	x4, [x8, _cmdline_glyphs_per_line@PAGEOFF]
	mov	w0, #0
	.loc	1 484 6                         ; main.c:484:6
	bl	_tga_draw_font
	.loc	1 484 4                         ; main.c:484:4
	stur	w0, [x29, #-76]
Ltmp246:
LBB9_82:
	.loc	1 0 0                           ; main.c:0:0
	adrp	x8, _runtime_test@PAGE
Ltmp247:
	.loc	1 486 12 is_stmt 1              ; main.c:486:12
	ldr	w8, [x8, _runtime_test@PAGEOFF]
Ltmp248:
	.loc	1 486 12 is_stmt 0              ; main.c:486:12
	cbz	w8, LBB9_88
; %bb.83:
Ltmp249:
	.loc	1 489 14 is_stmt 1              ; main.c:489:14
	bl	_clock
	.loc	1 489 10 is_stmt 0              ; main.c:489:10
	stur	x0, [x29, #-96]
	add	x0, sp, #32                     ; =32
	str	x0, [sp, #24]                   ; 8-byte Folded Spill
	.loc	1 491 2 is_stmt 1               ; main.c:491:2
	bl	_fd_init
	ldr	x0, [sp, #24]                   ; 8-byte Folded Reload
	.loc	1 492 19                        ; main.c:492:19
	ldur	x8, [x29, #-32]
	.loc	1 492 23 is_stmt 0              ; main.c:492:23
	ldr	x1, [x8, #1288]
	.loc	1 492 2                         ; main.c:492:2
	bl	_fd_set_font
Ltmp250:
	.loc	1 493 9 is_stmt 1               ; main.c:493:9
	stur	xzr, [x29, #-88]
LBB9_84:                                ; =>This Inner Loop Header: Depth=1
Ltmp251:
	.loc	1 493 14 is_stmt 0              ; main.c:493:14
	ldur	x8, [x29, #-88]
	mov	x9, #10000
Ltmp252:
	.loc	1 493 2                         ; main.c:493:2
	subs	x8, x8, x9
	b.ge	LBB9_87
Ltmp253:
; %bb.85:                               ;   in Loop: Header=BB9_84 Depth=1
	.loc	1 0 0                           ; main.c:0:0
	adrp	x8, _left_margin@PAGE
Ltmp254:
	.loc	1 494 24 is_stmt 1              ; main.c:494:24
	ldr	x8, [x8, _left_margin@PAGEOFF]
	mov	x1, x8
	.loc	1 494 37 is_stmt 0              ; main.c:494:37
	ldur	w2, [x29, #-76]
	add	x0, sp, #32                     ; =32
	.loc	1 0 0                           ; main.c:0:0
	adrp	x3, l_.str.53@PAGE
	add	x3, x3, l_.str.53@PAGEOFF
	.loc	1 494 4                         ; main.c:494:4
	bl	_fd_draw_string
; %bb.86:                               ;   in Loop: Header=BB9_84 Depth=1
	.loc	1 493 26 is_stmt 1              ; main.c:493:26
	ldur	x8, [x29, #-88]
	add	x8, x8, #1                      ; =1
	stur	x8, [x29, #-88]
	.loc	1 493 2 is_stmt 0               ; main.c:493:2
	b	LBB9_84
Ltmp255:
LBB9_87:
	.loc	1 495 9 is_stmt 1               ; main.c:495:9
	ldur	x8, [x29, #-32]
	str	x8, [sp, #16]                   ; 8-byte Folded Spill
	.loc	1 495 49 is_stmt 0              ; main.c:495:49
	bl	_clock
	mov	x8, x0
	ldr	x0, [sp, #16]                   ; 8-byte Folded Reload
	.loc	1 495 57                        ; main.c:495:57
	ldur	x9, [x29, #-96]
	.loc	1 495 56                        ; main.c:495:56
	subs	x8, x8, x9
	.loc	1 495 40                        ; main.c:495:40
	ucvtf	d0, x8
	adrp	x8, lCPI9_0@PAGE
	ldr	d1, [x8, lCPI9_0@PAGEOFF]
	.loc	1 495 59                        ; main.c:495:59
	fdiv	d0, d0, d1
	.loc	1 0 0                           ; main.c:0:0
	adrp	x1, l_.str.60@PAGE
	add	x1, x1, l_.str.60@PAGEOFF
	.loc	1 495 2                         ; main.c:495:2
	mov	x8, sp
	str	d0, [x8]
	bl	_bf_Log
Ltmp256:
LBB9_88:
	.loc	1 0 2                           ; main.c:0:2
	mov	w1, #1
	.loc	1 498 7 is_stmt 1               ; main.c:498:7
	mov	x0, x1
	mov	w4, #0
	mov	x2, x4
	mov	x3, x4
	bl	_tga_set_pixel
	.loc	1 0 0 is_stmt 0                 ; main.c:0:0
	adrp	x0, l_.str.61@PAGE
	add	x0, x0, l_.str.61@PAGEOFF
	.loc	1 500 7 is_stmt 1               ; main.c:500:7
	bl	_tga_save
Ltmp257:
LBB9_89:
LBB9_90:
	.loc	1 0 0 is_stmt 0                 ; main.c:0:0
	adrp	x8, _c_filename@PAGE
Ltmp258:
	.loc	1 506 8 is_stmt 1               ; main.c:506:8
	ldr	x8, [x8, _c_filename@PAGEOFF]
Ltmp259:
	.loc	1 506 8 is_stmt 0               ; main.c:506:8
	cbz	x8, LBB9_95
; %bb.91:
Ltmp260:
	.loc	1 0 0                           ; main.c:0:0
	adrp	x8, _font_format@PAGE
Ltmp261:
	.loc	1 509 10 is_stmt 1              ; main.c:509:10
	ldr	x8, [x8, _font_format@PAGEOFF]
Ltmp262:
	.loc	1 509 10 is_stmt 0              ; main.c:509:10
	cbnz	x8, LBB9_93
; %bb.92:
Ltmp263:
	.loc	1 511 30 is_stmt 1              ; main.c:511:30
	ldur	x0, [x29, #-32]
Ltmp264:
	.loc	1 0 0 is_stmt 0                 ; main.c:0:0
	adrp	x8, _c_filename@PAGE
Ltmp265:
	.loc	1 511 34                        ; main.c:511:34
	ldr	x1, [x8, _c_filename@PAGEOFF]
Ltmp266:
	.loc	1 0 0                           ; main.c:0:0
	adrp	x8, _target_fontname@PAGE
Ltmp267:
	.loc	1 511 46                        ; main.c:511:46
	ldr	x2, [x8, _target_fontname@PAGEOFF]
Ltmp268:
	.loc	1 0 0                           ; main.c:0:0
	adrp	x3, l_.str.62@PAGE
	add	x3, x3, l_.str.62@PAGEOFF
Ltmp269:
	.loc	1 511 7                         ; main.c:511:7
	bl	_bf_WriteUCGCByFilename
	.loc	1 512 5 is_stmt 1               ; main.c:512:5
	b	LBB9_94
Ltmp270:
LBB9_93:
	.loc	1 516 31                        ; main.c:516:31
	ldur	x0, [x29, #-32]
Ltmp271:
	.loc	1 0 0 is_stmt 0                 ; main.c:0:0
	adrp	x8, _c_filename@PAGE
Ltmp272:
	.loc	1 516 35                        ; main.c:516:35
	ldr	x1, [x8, _c_filename@PAGEOFF]
Ltmp273:
	.loc	1 0 0                           ; main.c:0:0
	adrp	x8, _target_fontname@PAGE
Ltmp274:
	.loc	1 516 47                        ; main.c:516:47
	ldr	x2, [x8, _target_fontname@PAGEOFF]
	.loc	1 0 0                           ; main.c:0:0
	adrp	x3, l_.str.62@PAGE
	add	x3, x3, l_.str.62@PAGEOFF
	.loc	1 516 7                         ; main.c:516:7
	bl	_bf_WriteU8G2CByFilename
Ltmp275:
LBB9_94:
LBB9_95:
	.loc	1 0 0                           ; main.c:0:0
	adrp	x8, _k_filename@PAGE
Ltmp276:
	.loc	1 520 8 is_stmt 1               ; main.c:520:8
	ldr	x8, [x8, _k_filename@PAGEOFF]
Ltmp277:
	.loc	1 520 8 is_stmt 0               ; main.c:520:8
	cbz	x8, LBB9_97
; %bb.96:
Ltmp278:
	.loc	1 522 31 is_stmt 1              ; main.c:522:31
	ldur	x0, [x29, #-32]
Ltmp279:
	.loc	1 0 0 is_stmt 0                 ; main.c:0:0
	adrp	x8, _k_filename@PAGE
Ltmp280:
	.loc	1 522 35                        ; main.c:522:35
	ldr	x1, [x8, _k_filename@PAGEOFF]
Ltmp281:
	.loc	1 0 0                           ; main.c:0:0
	adrp	x8, _target_fontname@PAGE
Ltmp282:
	.loc	1 522 47                        ; main.c:522:47
	ldr	x2, [x8, _target_fontname@PAGEOFF]
Ltmp283:
	.loc	1 0 0                           ; main.c:0:0
	adrp	x8, _min_distance_in_per_cent_of_char_width@PAGE
Ltmp284:
	.loc	1 522 64                        ; main.c:522:64
	ldr	x8, [x8, _min_distance_in_per_cent_of_char_width@PAGEOFF]
                                        ; kill: def $w8 killed $w8 killed $x8
	.loc	1 522 5                         ; main.c:522:5
	and	w3, w8, #0xff
	bl	_bdf_calculate_all_kerning
Ltmp285:
LBB9_97:
	.loc	1 527 12 is_stmt 1              ; main.c:527:12
	ldur	x0, [x29, #-32]
	.loc	1 527 3 is_stmt 0               ; main.c:527:3
	bl	_bf_Close
	mov	w0, #0
	.loc	1 528 3 is_stmt 1               ; main.c:528:3
	ldp	x29, x30, [sp, #208]            ; 16-byte Folded Reload
	add	sp, sp, #224                    ; =224
	ret
Ltmp286:
Lfunc_end9:
	.cfi_endproc
                                        ; -- End function
	.section	__TEXT,__cstring,cstring_literals
l_.str:                                 ; @.str
	.asciz	"bdfconv [options] filename\n"

l_.str.1:                               ; @.str.1
	.asciz	"-h          Display this help\n"

l_.str.2:                               ; @.str.2
	.asciz	"-v          Print log messages\n"

l_.str.3:                               ; @.str.3
	.asciz	"-b <n>      Font build mode, 0: proportional, 1: common height, 2: monospace, 3: multiple of 8, 4: 5x7 mode\n"

l_.str.4:                               ; @.str.4
	.asciz	"-f <n>      Font format, 0: ucglib font, 1: u8g2 font, 2: u8g2 uncompressed 8x8 font (enforces -b 3)\n"

l_.str.5:                               ; @.str.5
	.asciz	"-m 'map'    Unicode ASCII mapping\n"

l_.str.6:                               ; @.str.6
	.asciz	"-M 'mapfile'    Read Unicode ASCII mapping from file 'mapname'\n"

l_.str.7:                               ; @.str.7
	.asciz	"-o <file>   C output font file\n"

l_.str.8:                               ; @.str.8
	.asciz	"-k <file>   C output file with kerning information\n"

l_.str.9:                               ; @.str.9
	.asciz	"-p <%%>      Minimum distance for kerning in percent of the global char width (lower values: Smaller gaps, more data)\n"

l_.str.10:                              ; @.str.10
	.asciz	"-x <n>      X-Offset for 8x8 font sub-glyph extraction (requires -f 2, default 0)\n"

l_.str.11:                              ; @.str.11
	.asciz	"-y <n>      Y-Offset for 8x8 font sub-glyph extraction (requires -f 2, default 0)\n"

l_.str.12:                              ; @.str.12
	.asciz	"-th <n>     Horizontal size of the 8x8 glyphs (requires -f 2, default 1)\n"

l_.str.13:                              ; @.str.13
	.asciz	"-tv <n>     Vertical size of the 8x8 glyphs (requires -f 2, default 1)\n"

l_.str.14:                              ; @.str.14
	.asciz	"-n <name>   C indentifier (font name)\n"

l_.str.15:                              ; @.str.15
	.asciz	"-d <file>   Overview picture: Enable generation of bdf.tga and assign BDF font <file> for description\n"

l_.str.16:                              ; @.str.16
	.asciz	"-l <margin> Overview picture: Set left margin\n"

l_.str.17:                              ; @.str.17
	.asciz	"-g <glyphs> Overview picture: Set glyphs per line (default: 16)\n"

l_.str.18:                              ; @.str.18
	.asciz	"-a          Overview picture: Additional font information (background, orange&blue dot)\n"

l_.str.19:                              ; @.str.19
	.asciz	"-t          Overview picture: Test string (Woven silk pyjamas exchanged for blue quartz.)\n"

l_.str.20:                              ; @.str.20
	.asciz	"-r          Runtime test\n"

l_.str.21:                              ; @.str.21
	.asciz	"\n"

l_.str.22:                              ; @.str.22
	.asciz	"map := <mapcmd> { \",\" <mapcmd> }\n"

l_.str.23:                              ; @.str.23
	.asciz	"mapcmd := <default> | <maprange> | <exclude> | <exclude-kerning>\n"

l_.str.24:                              ; @.str.24
	.asciz	"default := \"*\"\n"

l_.str.25:                              ; @.str.25
	.asciz	"maprange := <range> [  \">\" <addexpr> ]        Move specified glyph <range> to target code <num>\n"

l_.str.26:                              ; @.str.26
	.asciz	"exclude := \"~\" <range> \n"

l_.str.27:                              ; @.str.27
	.asciz	"exclude-kerning:= \"x\" <range> \n"

l_.str.28:                              ; @.str.28
	.asciz	"range := <addexpr> [ \"-\" <addexpr> ]          Select glyphs within specified range\n"

l_.str.29:                              ; @.str.29
	.asciz	"addexpr := <mulexpr> [ \"+\" <mulexpr> ]\n"

l_.str.30:                              ; @.str.30
	.asciz	"mulexpr := <num> [ \"*\" <num> ]\n"

l_.str.31:                              ; @.str.31
	.asciz	"num := <hexnum> | <decnum>\n"

l_.str.32:                              ; @.str.32
	.asciz	"hexnum := \"$\" <hexdigit> { <hexdigit> }\n"

l_.str.33:                              ; @.str.33
	.asciz	"decnum := <decdigit> { <decdigit> }\n"

l_.str.34:                              ; @.str.34
	.asciz	"decdigit := \"0\" | \"1\" | \"2\" | \"3\" | \"4\" | \"5\" | \"6\" | \"7\" | \"8\" | \"9\"\n"

l_.str.35:                              ; @.str.35
	.asciz	"hexdigit := \"a\" | \"b\" | \"c\" | \"d\" | \"e\" | \"f\" | \"A\" | \"B\" | \"C\" | \"D\" | \"E\" | \"F\" | <decdigit>\n"

l_.str.36:                              ; @.str.36
	.asciz	"{ } zero, one ore more, [ ] zero or once, | alternative\n"

l_.str.37:                              ; @.str.37
	.asciz	"example:\n"

l_.str.38:                              ; @.str.38
	.asciz	"  -m '32-255'     select gylphs from encoding 32 to 255\n"

l_.str.39:                              ; @.str.39
	.asciz	"  -m '32-255,~64' select gylphs from encoding 32 to 255, exclude '@'\n"

l_.str.40:                              ; @.str.40
	.asciz	"  -m '32,48-57'   select space, '1', '2', ... '9'\n"

l_.str.41:                              ; @.str.41
	.asciz	"build modes:\n"

l_.str.42:                              ; @.str.42
	.asciz	" -b 0: Most compact, glyph bitmap is minimal\n"

l_.str.43:                              ; @.str.43
	.asciz	" -b 1: Like -b 0, but glyph bitmap is extended to the height of the largest glyph within the selected glyph list.\n"

l_.str.44:                              ; @.str.44
	.asciz	"       Also the width of the gylphs is extended to cover the delta x advance.\n"

l_.str.45:                              ; @.str.45
	.asciz	" -b 2: Like -b 1, but glyph width is set to the width of the largest glyph within the selected gylph list.\n"

l_.str.46:                              ; @.str.46
	.asciz	" -b 3: Like -b 2, but width and height are forced to be a multiple of 8.\n"

	.section	__DATA,__data
	.globl	_left_margin                    ; @left_margin
	.p2align	3
_left_margin:
	.quad	1                               ; 0x1

	.globl	_build_bbx_mode                 ; @build_bbx_mode
.zerofill __DATA,__common,_build_bbx_mode,8,3
	.globl	_font_format                    ; @font_format
.zerofill __DATA,__common,_font_format,8,3
	.globl	_min_distance_in_per_cent_of_char_width ; @min_distance_in_per_cent_of_char_width
	.p2align	3
_min_distance_in_per_cent_of_char_width:
	.quad	25                              ; 0x19

	.globl	_cmdline_glyphs_per_line        ; @cmdline_glyphs_per_line
	.p2align	3
_cmdline_glyphs_per_line:
	.quad	16                              ; 0x10

	.globl	_xoffset                        ; @xoffset
.zerofill __DATA,__common,_xoffset,8,3
	.globl	_yoffset                        ; @yoffset
.zerofill __DATA,__common,_yoffset,8,3
	.globl	_tile_h_size                    ; @tile_h_size
	.p2align	3
_tile_h_size:
	.quad	1                               ; 0x1

	.globl	_tile_v_size                    ; @tile_v_size
	.p2align	3
_tile_v_size:
	.quad	1                               ; 0x1

	.globl	_font_picture_extra_info        ; @font_picture_extra_info
.zerofill __DATA,__common,_font_picture_extra_info,4,2
	.globl	_font_picture_test_string       ; @font_picture_test_string
.zerofill __DATA,__common,_font_picture_test_string,4,2
	.globl	_runtime_test                   ; @runtime_test
.zerofill __DATA,__common,_runtime_test,4,2
	.globl	_c_filename                     ; @c_filename
.zerofill __DATA,__common,_c_filename,8,3
	.globl	_k_filename                     ; @k_filename
.zerofill __DATA,__common,_k_filename,8,3
	.section	__TEXT,__cstring,cstring_literals
l_.str.47:                              ; @.str.47
	.asciz	"bdf_font"

	.section	__DATA,__data
	.globl	_target_fontname                ; @target_fontname
	.p2align	3
_target_fontname:
	.quad	l_.str.47

	.section	__TEXT,__cstring,cstring_literals
l_.str.48:                              ; @.str.48
	.asciz	"%5ld/0x%04lx"

.zerofill __DATA,__bss,_tga_draw_font_info.s,256,0 ; @tga_draw_font_info.s
l_.str.49:                              ; @.str.49
	.asciz	"Max width %u, max height %u"

l_.str.50:                              ; @.str.50
	.asciz	"'A' height %d, font size %d "

l_.str.51:                              ; @.str.51
	.asciz	"Draw TGA, line height %d"

l_.str.52:                              ; @.str.52
	.asciz	"Draw TGA, xmax %d"

l_.str.53:                              ; @.str.53
	.asciz	"Woven silk pyjamas exchanged for blue quartz."

l_.str.54:                              ; @.str.54
	.asciz	"*"

l_.str.55:                              ; @.str.55
	.space	1

l_.str.56:                              ; @.str.56
	.asciz	"th"

l_.str.57:                              ; @.str.57
	.asciz	"tv"

l_.str.58:                              ; @.str.58
	.asciz	"Note: For font format 2 BBX mode has been set to 3"

l_.str.59:                              ; @.str.59
	.asciz	"Note: Overview Picture not possible for font format 2, option -d ignored."

l_.str.60:                              ; @.str.60
	.asciz	"Runtime test: %.2lf sec"

l_.str.61:                              ; @.str.61
	.asciz	"bdf.tga"

l_.str.62:                              ; @.str.62
	.asciz	"  "

	.file	2 "/Users/songsizhou/Documents/GitHub/u8g2_font_builder/u8g2/tools/font/bdfconv" "./bdf_font.h"
	.file	3 "/Users/songsizhou/Documents/GitHub/u8g2_font_builder/u8g2/tools/font/bdfconv" "./bdf_glyph.h"
	.file	4 "/Library/Developer/CommandLineTools/SDKs/MacOSX.sdk/usr/include/_types" "_uint8_t.h"
	.file	5 "/Library/Developer/CommandLineTools/SDKs/MacOSX.sdk/usr/include" "_stdio.h"
	.file	6 "/Library/Developer/CommandLineTools/SDKs/MacOSX.sdk/usr/include/arm" "_types.h"
	.file	7 "/Library/Developer/CommandLineTools/SDKs/MacOSX.sdk/usr/include/sys" "_types.h"
	.file	8 "/Library/Developer/CommandLineTools/SDKs/MacOSX.sdk/usr/include/sys/_types" "_clock_t.h"
	.file	9 "/Users/songsizhou/Documents/GitHub/u8g2_font_builder/u8g2/tools/font/bdfconv" "./fd.h"